---
triple:          'arm64-apple-darwin'
binary-path:     assignment1
relocations:
  - { offset: 0x3F, size: 0x8, addend: 0x0, symName: _stbi_write_png_compression_level, symObjAddr: 0x3CBE8, symBinAddr: 0x100048000, symSize: 0x0 }
  - { offset: 0x5C, size: 0x8, addend: 0x0, symName: _stbi_write_tga_with_rle, symObjAddr: 0x3CBEC, symBinAddr: 0x100048004, symSize: 0x0 }
  - { offset: 0x72, size: 0x8, addend: 0x0, symName: _stbi_write_force_png_filter, symObjAddr: 0x3CBF0, symBinAddr: 0x100048008, symSize: 0x0 }
  - { offset: 0x88, size: 0x8, addend: 0x0, symName: __ZL30stbi__flip_vertically_on_write, symObjAddr: 0x10D7E0, symBinAddr: 0x100048648, symSize: 0x0 }
  - { offset: 0xA8, size: 0x8, addend: 0x0, symName: _stbi_zlib_compress, symObjAddr: 0x1FF8, symBinAddr: 0x1000050C0, symSize: 0x11B4 }
  - { offset: 0xCF, size: 0x8, addend: 0x0, symName: __ZZ18stbi_zlib_compressE7lengthc, symObjAddr: 0x3CBF4, symBinAddr: 0x10004800C, symSize: 0x0 }
  - { offset: 0xE5, size: 0x8, addend: 0x0, symName: __ZZ18stbi_zlib_compressE8lengtheb, symObjAddr: 0x3CC30, symBinAddr: 0x100048048, symSize: 0x0 }
  - { offset: 0xFB, size: 0x8, addend: 0x0, symName: __ZZ18stbi_zlib_compressE5distc, symObjAddr: 0x3CC4E, symBinAddr: 0x100048066, symSize: 0x0 }
  - { offset: 0x111, size: 0x8, addend: 0x0, symName: __ZZ18stbi_zlib_compressE6disteb, symObjAddr: 0x3CC8C, symBinAddr: 0x1000480A4, symSize: 0x0 }
  - { offset: 0x2FC, size: 0x8, addend: 0x0, symName: __ZL22stbiw__encode_png_linePhiiiiiiPa, symObjAddr: 0x3C7C, symBinAddr: 0x100006D44, symSize: 0x65C }
  - { offset: 0x323, size: 0x8, addend: 0x0, symName: __ZZL22stbiw__encode_png_linePhiiiiiiPaE7mapping, symObjAddr: 0x3CCAC, symBinAddr: 0x1000480C4, symSize: 0x0 }
  - { offset: 0x339, size: 0x8, addend: 0x0, symName: __ZZL22stbiw__encode_png_linePhiiiiiiPaE8firstmap, symObjAddr: 0x3CCC0, symBinAddr: 0x1000480D8, symSize: 0x0 }
  - { offset: 0x413, size: 0x8, addend: 0x0, symName: __ZL12stbiw__crc32Phi, symObjAddr: 0x4460, symBinAddr: 0x100007528, symSize: 0x80 }
  - { offset: 0x43E, size: 0x8, addend: 0x0, symName: __ZZL12stbiw__crc32PhiE9crc_table, symObjAddr: 0x3CCD4, symBinAddr: 0x1000480EC, symSize: 0x0 }
  - { offset: 0x498, size: 0x8, addend: 0x0, symName: __ZL19stbi_write_jpg_coreP19stbi__write_contextiiiPKvi, symObjAddr: 0x46E8, symBinAddr: 0x1000077B0, symSize: 0x1098 }
  - { offset: 0x4C3, size: 0x8, addend: 0x0, symName: __ZZL19stbi_write_jpg_coreP19stbi__write_contextiiiPKviE24std_dc_luminance_nrcodes, symObjAddr: 0x3DE68, symBinAddr: 0x1000413E8, symSize: 0x0 }
  - { offset: 0x4D9, size: 0x8, addend: 0x0, symName: __ZZL19stbi_write_jpg_coreP19stbi__write_contextiiiPKviE23std_dc_luminance_values, symObjAddr: 0x3DE79, symBinAddr: 0x1000413F9, symSize: 0x0 }
  - { offset: 0x4EF, size: 0x8, addend: 0x0, symName: __ZZL19stbi_write_jpg_coreP19stbi__write_contextiiiPKviE24std_ac_luminance_nrcodes, symObjAddr: 0x3DE85, symBinAddr: 0x100041405, symSize: 0x0 }
  - { offset: 0x505, size: 0x8, addend: 0x0, symName: __ZZL19stbi_write_jpg_coreP19stbi__write_contextiiiPKviE23std_ac_luminance_values, symObjAddr: 0x3DE96, symBinAddr: 0x100041416, symSize: 0x0 }
  - { offset: 0x51B, size: 0x8, addend: 0x0, symName: __ZZL19stbi_write_jpg_coreP19stbi__write_contextiiiPKviE26std_dc_chrominance_nrcodes, symObjAddr: 0x3DF38, symBinAddr: 0x1000414B8, symSize: 0x0 }
  - { offset: 0x531, size: 0x8, addend: 0x0, symName: __ZZL19stbi_write_jpg_coreP19stbi__write_contextiiiPKviE25std_dc_chrominance_values, symObjAddr: 0x3DF49, symBinAddr: 0x1000414C9, symSize: 0x0 }
  - { offset: 0x547, size: 0x8, addend: 0x0, symName: __ZZL19stbi_write_jpg_coreP19stbi__write_contextiiiPKviE26std_ac_chrominance_nrcodes, symObjAddr: 0x3DF55, symBinAddr: 0x1000414D5, symSize: 0x0 }
  - { offset: 0x55D, size: 0x8, addend: 0x0, symName: __ZZL19stbi_write_jpg_coreP19stbi__write_contextiiiPKviE25std_ac_chrominance_values, symObjAddr: 0x3DF66, symBinAddr: 0x1000414E6, symSize: 0x0 }
  - { offset: 0x573, size: 0x8, addend: 0x0, symName: __ZZL19stbi_write_jpg_coreP19stbi__write_contextiiiPKviE6YDC_HT, symObjAddr: 0x3E008, symBinAddr: 0x100041588, symSize: 0x0 }
  - { offset: 0x589, size: 0x8, addend: 0x0, symName: __ZZL19stbi_write_jpg_coreP19stbi__write_contextiiiPKviE7UVDC_HT, symObjAddr: 0x3E408, symBinAddr: 0x100041988, symSize: 0x0 }
  - { offset: 0x59F, size: 0x8, addend: 0x0, symName: __ZZL19stbi_write_jpg_coreP19stbi__write_contextiiiPKviE6YAC_HT, symObjAddr: 0x3E808, symBinAddr: 0x100041D88, symSize: 0x0 }
  - { offset: 0x5B5, size: 0x8, addend: 0x0, symName: __ZZL19stbi_write_jpg_coreP19stbi__write_contextiiiPKviE7UVAC_HT, symObjAddr: 0x3EC08, symBinAddr: 0x100042188, symSize: 0x0 }
  - { offset: 0x5CB, size: 0x8, addend: 0x0, symName: __ZZL19stbi_write_jpg_coreP19stbi__write_contextiiiPKviE3YQT, symObjAddr: 0x3F008, symBinAddr: 0x100042588, symSize: 0x0 }
  - { offset: 0x5E1, size: 0x8, addend: 0x0, symName: __ZZL19stbi_write_jpg_coreP19stbi__write_contextiiiPKviE4UVQT, symObjAddr: 0x3F108, symBinAddr: 0x100042688, symSize: 0x0 }
  - { offset: 0x5F7, size: 0x8, addend: 0x0, symName: __ZZL19stbi_write_jpg_coreP19stbi__write_contextiiiPKviE4aasf, symObjAddr: 0x3F208, symBinAddr: 0x100042788, symSize: 0x0 }
  - { offset: 0x60D, size: 0x8, addend: 0x0, symName: __ZZL19stbi_write_jpg_coreP19stbi__write_contextiiiPKviE5head0, symObjAddr: 0x3F268, symBinAddr: 0x1000427E8, symSize: 0x0 }
  - { offset: 0x623, size: 0x8, addend: 0x0, symName: __ZZL19stbi_write_jpg_coreP19stbi__write_contextiiiPKviE5head2, symObjAddr: 0x3F281, symBinAddr: 0x100042801, symSize: 0x0 }
  - { offset: 0x639, size: 0x8, addend: 0x0, symName: __ZZL19stbi_write_jpg_coreP19stbi__write_contextiiiPKviE8fillBits, symObjAddr: 0x3F290, symBinAddr: 0x100042810, symSize: 0x0 }
  - { offset: 0xAD0, size: 0x8, addend: 0x0, symName: __ZL17stbiw__jpg_ZigZag, symObjAddr: 0x3F228, symBinAddr: 0x1000427A8, symSize: 0x0 }
  - { offset: 0xAFB, size: 0x8, addend: 0x0, symName: __ZL36stbi__vertically_flip_on_load_global, symObjAddr: 0x10D7E4, symBinAddr: 0x10004864C, symSize: 0x0 }
  - { offset: 0xB15, size: 0x8, addend: 0x0, symName: __ZL21stbi__stdio_callbacks, symObjAddr: 0x3D0D8, symBinAddr: 0x1000484F0, symSize: 0x0 }
  - { offset: 0xB9D, size: 0x8, addend: 0x0, symName: __ZL22stbi__check_png_headerP13stbi__context, symObjAddr: 0xAF24, symBinAddr: 0x10000DFEC, symSize: 0x90 }
  - { offset: 0xBC8, size: 0x8, addend: 0x0, symName: __ZZL22stbi__check_png_headerP13stbi__contextE7png_sig, symObjAddr: 0x3F294, symBinAddr: 0x100042814, symSize: 0x0 }
  - { offset: 0xC0D, size: 0x8, addend: 0x0, symName: __ZL20stbi__parse_png_fileP9stbi__pngii, symObjAddr: 0xB2F4, symBinAddr: 0x10000E3BC, symSize: 0xEFC }
  - { offset: 0xC38, size: 0x8, addend: 0x0, symName: __ZZL20stbi__parse_png_fileP9stbi__pngiiE13invalid_chunk, symObjAddr: 0x3D0F0, symBinAddr: 0x100048508, symSize: 0x0 }
  - { offset: 0xE20, size: 0x8, addend: 0x0, symName: __ZL23stbi__depth_scale_table, symObjAddr: 0x3F29C, symBinAddr: 0x10004281C, symSize: 0x0 }
  - { offset: 0xE46, size: 0x8, addend: 0x0, symName: __ZL16first_row_filter, symObjAddr: 0x3D109, symBinAddr: 0x100048521, symSize: 0x0 }
  - { offset: 0xE6C, size: 0x8, addend: 0x0, symName: __ZL27stbi__de_iphone_flag_global, symObjAddr: 0x10D7E8, symBinAddr: 0x100048650, symSize: 0x0 }
  - { offset: 0xE86, size: 0x8, addend: 0x0, symName: __ZL34stbi__unpremultiply_on_load_global, symObjAddr: 0x10D7EC, symBinAddr: 0x100048654, symSize: 0x0 }
  - { offset: 0xE93, size: 0x8, addend: 0x0, symName: __ZL17stbi__shiftsignedjii, symObjAddr: 0xFE08, symBinAddr: 0x100012ED0, symSize: 0x130 }
  - { offset: 0xEBE, size: 0x8, addend: 0x0, symName: __ZZL17stbi__shiftsignedjiiE9mul_table, symObjAddr: 0x3D110, symBinAddr: 0x100048528, symSize: 0x0 }
  - { offset: 0xED4, size: 0x8, addend: 0x0, symName: __ZZL17stbi__shiftsignedjiiE11shift_table, symObjAddr: 0x3D134, symBinAddr: 0x10004854C, symSize: 0x0 }
  - { offset: 0xF17, size: 0x8, addend: 0x0, symName: __ZL20stbi__process_markerP10stbi__jpegi, symObjAddr: 0x12E44, symBinAddr: 0x100015F0C, symSize: 0x764 }
  - { offset: 0xF42, size: 0x8, addend: 0x0, symName: __ZZL20stbi__process_markerP10stbi__jpegiE3tag, symObjAddr: 0x3F367, symBinAddr: 0x1000428E7, symSize: 0x0 }
  - { offset: 0xF58, size: 0x8, addend: 0x0, symName: __ZZL20stbi__process_markerP10stbi__jpegiE3tag_0, symObjAddr: 0x3F36C, symBinAddr: 0x1000428EC, symSize: 0x0 }
  - { offset: 0x10E4, size: 0x8, addend: 0x0, symName: __ZL19stbi__jpeg_dezigzag, symObjAddr: 0x3F318, symBinAddr: 0x100042898, symSize: 0x0 }
  - { offset: 0x10FD, size: 0x8, addend: 0x0, symName: __ZL26stbi__process_frame_headerP10stbi__jpegi, symObjAddr: 0x135A8, symBinAddr: 0x100016670, symSize: 0xB88 }
  - { offset: 0x1128, size: 0x8, addend: 0x0, symName: __ZZL26stbi__process_frame_headerP10stbi__jpegiE3rgb, symObjAddr: 0x3F372, symBinAddr: 0x1000428F2, symSize: 0x0 }
  - { offset: 0x11E1, size: 0x8, addend: 0x0, symName: __ZL11stbi__bmask, symObjAddr: 0x3F378, symBinAddr: 0x1000428F8, symSize: 0x0 }
  - { offset: 0x1223, size: 0x8, addend: 0x0, symName: __ZL11stbi__jbias, symObjAddr: 0x3F3BC, symBinAddr: 0x10004293C, symSize: 0x0 }
  - { offset: 0x1249, size: 0x8, addend: 0x0, symName: __ZL17stbi__h2l_scale_i, symObjAddr: 0x3D158, symBinAddr: 0x100048570, symSize: 0x0 }
  - { offset: 0x1263, size: 0x8, addend: 0x0, symName: __ZL17stbi__h2l_gamma_i, symObjAddr: 0x3D15C, symBinAddr: 0x100048574, symSize: 0x0 }
  - { offset: 0x127D, size: 0x8, addend: 0x0, symName: __ZL15stbi__l2h_gamma, symObjAddr: 0x3D160, symBinAddr: 0x100048578, symSize: 0x0 }
  - { offset: 0x1297, size: 0x8, addend: 0x0, symName: __ZL15stbi__l2h_scale, symObjAddr: 0x3D164, symBinAddr: 0x10004857C, symSize: 0x0 }
  - { offset: 0x12B1, size: 0x8, addend: 0x0, symName: __ZL21stbi__zdefault_length, symObjAddr: 0x3F3FC, symBinAddr: 0x10004297C, symSize: 0x0 }
  - { offset: 0x12D8, size: 0x8, addend: 0x0, symName: __ZL23stbi__zdefault_distance, symObjAddr: 0x3F51C, symBinAddr: 0x100042A9C, symSize: 0x0 }
  - { offset: 0x12F1, size: 0x8, addend: 0x0, symName: __ZL27stbi__compute_huffman_codesP10stbi__zbuf, symObjAddr: 0x1B520, symBinAddr: 0x10001E5E8, symSize: 0x380 }
  - { offset: 0x131C, size: 0x8, addend: 0x0, symName: __ZZL27stbi__compute_huffman_codesP10stbi__zbufE15length_dezigzag, symObjAddr: 0x3F53C, symBinAddr: 0x100042ABC, symSize: 0x0 }
  - { offset: 0x142F, size: 0x8, addend: 0x0, symName: __ZL18stbi__zlength_base, symObjAddr: 0x3F550, symBinAddr: 0x100042AD0, symSize: 0x0 }
  - { offset: 0x1455, size: 0x8, addend: 0x0, symName: __ZL19stbi__zlength_extra, symObjAddr: 0x3F5CC, symBinAddr: 0x100042B4C, symSize: 0x0 }
  - { offset: 0x146F, size: 0x8, addend: 0x0, symName: __ZL16stbi__zdist_base, symObjAddr: 0x3F648, symBinAddr: 0x100042BC8, symSize: 0x0 }
  - { offset: 0x1495, size: 0x8, addend: 0x0, symName: __ZL17stbi__zdist_extra, symObjAddr: 0x3F6C8, symBinAddr: 0x100042C48, symSize: 0x0 }
  - { offset: 0x14AE, size: 0x8, addend: 0x0, symName: __ZL7uniform, symObjAddr: 0x10D7F0, symBinAddr: 0x100048658, symSize: 0x0 }
  - { offset: 0x9CD9, size: 0x8, addend: 0x0, symName: __ZNSt3__16__math3powB8ne200100IdiTnNS_9enable_ifIXaasr13is_arithmeticIT_EE5valuesr13is_arithmeticIT0_EE5valueEiE4typeELi0EEENS_9__promoteIJS3_S4_EE4typeES3_S4_, symObjAddr: 0x24D80, symBinAddr: 0x100027E48, symSize: 0x38 }
  - { offset: 0x9D36, size: 0x8, addend: 0x0, symName: __ZNSt3__16__math5frexpB8ne200100EfPi, symObjAddr: 0x1EFC, symBinAddr: 0x100004FC4, symSize: 0x2C }
  - { offset: 0x9D70, size: 0x8, addend: 0x0, symName: __ZNSt3__16__math5ldexpB8ne200100Efi, symObjAddr: 0x191AC, symBinAddr: 0x10001C274, symSize: 0x1C }
  - { offset: 0x9DAA, size: 0x8, addend: 0x0, symName: __ZNSt3__16__math3powB8ne200100Eff, symObjAddr: 0x191C8, symBinAddr: 0x10001C290, symSize: 0x2C }
  - { offset: 0x9DE4, size: 0x8, addend: 0x0, symName: __ZNSt3__16__math3powB8ne200100IiEEddd, symObjAddr: 0x250C4, symBinAddr: 0x10002818C, symSize: 0x2C }
  - { offset: 0x9FB9, size: 0x8, addend: 0x0, symName: __ZNSt3__16chronomiB8ne200100IxNS_5ratioILl1ELl1000000000EEExS3_EENS_11common_typeIJNS0_8durationIT_T0_EENS5_IT1_T2_EEEE4typeERKS8_RKSB_, symObjAddr: 0x252BC, symBinAddr: 0x100028384, symSize: 0x6C }
  - { offset: 0xA4DC, size: 0x8, addend: 0x0, symName: __ZNSt3__16chronomiB8ne200100INS0_12steady_clockENS0_8durationIxNS_5ratioILl1ELl1000000000EEEEES6_EENS_11common_typeIJT0_T1_EE4typeERKNS0_10time_pointIT_S8_EERKNSC_ISD_S9_EE, symObjAddr: 0x23B40, symBinAddr: 0x100026C08, symSize: 0x58 }
  - { offset: 0xA639, size: 0x8, addend: 0x0, symName: __ZNSt3__16chrono13duration_castB8ne200100INS0_8durationIdNS_5ratioILl1ELl1EEEEExNS3_ILl1ELl1000000000EEETnNS_9enable_ifIX15__is_duration_vIT_EEiE4typeELi0EEES8_RKNS2_IT0_T1_EE, symObjAddr: 0x253FC, symBinAddr: 0x1000284C4, symSize: 0x30 }
  - { offset: 0xA7EA, size: 0x8, addend: 0x0, symName: __ZNSt3__124__put_character_sequenceB8ne200100IcNS_11char_traitsIcEEEERNS_13basic_ostreamIT_T0_EES7_PKS4_m, symObjAddr: 0x254D4, symBinAddr: 0x10002859C, symSize: 0x1E4 }
  - { offset: 0xC0F6, size: 0x8, addend: 0x0, symName: __ZNSt3__17advanceB8ne200100INS_11__wrap_iterIPNS_10shared_ptrI8GeometryEEEEllTnNS_9enable_ifIXsr11is_integralIT1_EE5valueEiE4typeELi0EEEvRT_T0_, symObjAddr: 0x2B488, symBinAddr: 0x10002E550, symSize: 0x38 }
  - { offset: 0xC18D, size: 0x8, addend: 0x0, symName: __ZNSt3__16copy_nB8ne200100INS_11__wrap_iterIPNS_10shared_ptrI8GeometryEEEElS5_TnNS_9enable_ifIXsr37__has_random_access_iterator_categoryIT_EE5valueEiE4typeELi0EEET1_S8_T0_SB_, symObjAddr: 0x2B18C, symBinAddr: 0x10002E254, symSize: 0x58 }
  - { offset: 0x13E09, size: 0x8, addend: 0x0, symName: __ZNSt3__118generate_canonicalB8ne200100IdLm53ENS_26linear_congruential_engineIjLj48271ELj0ELj2147483647EEEEET_RT1_, symObjAddr: 0x1E7BC, symBinAddr: 0x100021884, symSize: 0x118 }
  - { offset: 0x13F35, size: 0x8, addend: 0x0, symName: __ZNSt3__111make_sharedB8ne200100I6SphereJ6VectoriS2_ETnNS_9enable_ifIXntsr8is_arrayIT_EE5valueEiE4typeELi0EEENS_10shared_ptrIS4_EEDpOT0_, symObjAddr: 0x1EDA8, symBinAddr: 0x100021E70, symSize: 0x50 }
  - { offset: 0x141F3, size: 0x8, addend: 0x0, symName: __ZNSt3__115allocate_sharedB8ne200100I6SphereNS_9allocatorIS1_EEJ6VectoriS4_ETnNS_9enable_ifIXntsr8is_arrayIT_EE5valueEiE4typeELi0EEENS_10shared_ptrIS6_EERKT0_DpOT1_, symObjAddr: 0x1EEEC, symBinAddr: 0x100021FB4, symSize: 0xD8 }
  - { offset: 0x145D4, size: 0x8, addend: 0x0, symName: __ZNSt3__117__libcpp_allocateB8ne200100INS_20__shared_ptr_emplaceI6SphereNS_9allocatorIS2_EEEEEEPT_NS_15__element_countEm, symObjAddr: 0x1F338, symBinAddr: 0x100022400, symSize: 0x70 }
  - { offset: 0x14641, size: 0x8, addend: 0x0, symName: __ZNSt3__124__is_overaligned_for_newB8ne200100Em, symObjAddr: 0x1F3C8, symBinAddr: 0x100022490, symSize: 0x1C }
  - { offset: 0x1466D, size: 0x8, addend: 0x0, symName: __ZNSt3__121__libcpp_operator_newB8ne200100IJmSt11align_val_tEEEPvDpT_, symObjAddr: 0x1F3E4, symBinAddr: 0x1000224AC, symSize: 0x2C }
  - { offset: 0x146B7, size: 0x8, addend: 0x0, symName: __ZNSt3__121__libcpp_operator_newB8ne200100IJmEEEPvDpT_, symObjAddr: 0x1F410, symBinAddr: 0x1000224D8, symSize: 0x24 }
  - { offset: 0x14921, size: 0x8, addend: 0x0, symName: __ZNSt3__119__libcpp_deallocateB8ne200100INS_20__shared_ptr_emplaceI6SphereNS_9allocatorIS2_EEEEEEvPNS_15__type_identityIT_E4typeENS_15__element_countEm, symObjAddr: 0x200DC, symBinAddr: 0x1000231A4, symSize: 0x70 }
  - { offset: 0x14999, size: 0x8, addend: 0x0, symName: __ZNSt3__124__libcpp_operator_deleteB8ne200100IJPNS_20__shared_ptr_emplaceI6SphereNS_9allocatorIS2_EEEEmSt11align_val_tEEEvDpT_, symObjAddr: 0x2014C, symBinAddr: 0x100023214, symSize: 0x34 }
  - { offset: 0x149F3, size: 0x8, addend: 0x0, symName: __ZNSt3__124__libcpp_operator_deleteB8ne200100IJPNS_20__shared_ptr_emplaceI6SphereNS_9allocatorIS2_EEEEmEEEvDpT_, symObjAddr: 0x20180, symBinAddr: 0x100023248, symSize: 0x2C }
  - { offset: 0x14A39, size: 0x8, addend: 0x0, symName: __ZNSt3__122__make_exception_guardB8ne200100INS_6vectorINS_10shared_ptrI8GeometryEENS_9allocatorIS4_EEE16__destroy_vectorEEENS_28__exception_guard_exceptionsIT_EESA_, symObjAddr: 0x204FC, symBinAddr: 0x1000235C4, symSize: 0x40 }
  - { offset: 0x14A6E, size: 0x8, addend: 0x0, symName: __ZNSt3__119__allocate_at_leastB8ne200100INS_9allocatorINS_10shared_ptrI8GeometryEEEEEENS_19__allocation_resultINS_16allocator_traitsIT_E7pointerEEERS8_m, symObjAddr: 0x207B4, symBinAddr: 0x10002387C, symSize: 0x40 }
  - { offset: 0x14AB1, size: 0x8, addend: 0x0, symName: __ZNSt3__13minB8ne200100ImEERKT_S3_S3_, symObjAddr: 0x20808, symBinAddr: 0x1000238D0, symSize: 0x2C }
  - { offset: 0x14CDE, size: 0x8, addend: 0x0, symName: __ZNSt3__13minB8ne200100ImNS_6__lessIvvEEEERKT_S5_S5_T0_, symObjAddr: 0x2086C, symBinAddr: 0x100023934, symSize: 0x54 }
  - { offset: 0x14DEE, size: 0x8, addend: 0x0, symName: __ZNSt3__120__throw_length_errorB8ne200100EPKc, symObjAddr: 0x2090C, symBinAddr: 0x1000239D4, symSize: 0x64 }
  - { offset: 0x14E16, size: 0x8, addend: 0x0, symName: __ZNSt3__117__libcpp_allocateB8ne200100INS_10shared_ptrI8GeometryEEEEPT_NS_15__element_countEm, symObjAddr: 0x20A38, symBinAddr: 0x100023B00, symSize: 0x6C }
  - { offset: 0x14E83, size: 0x8, addend: 0x0, symName: __ZNSt3__130__uninitialized_allocator_copyB8ne200100INS_9allocatorINS_10shared_ptrI8GeometryEEEEPKS4_S7_PS4_EET2_RT_T0_T1_S9_, symObjAddr: 0x20AE0, symBinAddr: 0x100023BA8, symSize: 0x80 }
  - { offset: 0x14F20, size: 0x8, addend: 0x0, symName: __ZNSt3__114__unwrap_rangeB8ne200100IPKNS_10shared_ptrI8GeometryEES5_EENS_4pairIT0_S7_EET_S9_, symObjAddr: 0x20BD0, symBinAddr: 0x100023C98, symSize: 0x60 }
  - { offset: 0x14F6C, size: 0x8, addend: 0x0, symName: __ZNSt3__135__uninitialized_allocator_copy_implB8ne200100INS_9allocatorINS_10shared_ptrI8GeometryEEEEPKS4_S7_PS4_EET2_RT_T0_T1_S9_, symObjAddr: 0x20C30, symBinAddr: 0x100023CF8, symSize: 0xF0 }
  - { offset: 0x1500A, size: 0x8, addend: 0x0, symName: __ZNSt3__113__unwrap_iterB8ne200100IPNS_10shared_ptrI8GeometryEENS_18__unwrap_iter_implIS4_Lb1EEETnNS_9enable_ifIXsr21is_copy_constructibleIT_EE5valueEiE4typeELi0EEEDTclsrT0_8__unwrapclsr3stdE7declvalIS8_EEEES8_, symObjAddr: 0x20D20, symBinAddr: 0x100023DE8, symSize: 0x24 }
  - { offset: 0x1504E, size: 0x8, addend: 0x0, symName: __ZNSt3__113__rewrap_iterB8ne200100IPNS_10shared_ptrI8GeometryEES4_NS_18__unwrap_iter_implIS4_Lb1EEEEET_S7_T0_, symObjAddr: 0x20D44, symBinAddr: 0x100023E0C, symSize: 0x3C }
  - { offset: 0x150A3, size: 0x8, addend: 0x0, symName: __ZNSt3__19make_pairB8ne200100IPKNS_10shared_ptrI8GeometryEES5_EENS_4pairINS_18__unwrap_referenceIu7__decayIT_EE4typeENS7_Iu7__decayIT0_EE4typeEEEOS8_OSC_, symObjAddr: 0x20D80, symBinAddr: 0x100023E48, symSize: 0x38 }
  - { offset: 0x150F2, size: 0x8, addend: 0x0, symName: __ZNSt3__113__unwrap_iterB8ne200100IPKNS_10shared_ptrI8GeometryEENS_18__unwrap_iter_implIS5_Lb1EEETnNS_9enable_ifIXsr21is_copy_constructibleIT_EE5valueEiE4typeELi0EEEDTclsrT0_8__unwrapclsr3stdE7declvalIS9_EEEES9_, symObjAddr: 0x20DB8, symBinAddr: 0x100023E80, symSize: 0x24 }
  - { offset: 0x15268, size: 0x8, addend: 0x0, symName: __ZNSt3__112__to_addressB8ne200100IKNS_10shared_ptrI8GeometryEEEEPT_S6_, symObjAddr: 0x20E70, symBinAddr: 0x100023F38, symSize: 0x14 }
  - { offset: 0x1529D, size: 0x8, addend: 0x0, symName: __ZNSt3__122__make_exception_guardB8ne200100INS_29_AllocatorDestroyRangeReverseINS_9allocatorINS_10shared_ptrI8GeometryEEEEPS5_EEEENS_28__exception_guard_exceptionsIT_EESA_, symObjAddr: 0x20E84, symBinAddr: 0x100023F4C, symSize: 0x4C }
  - { offset: 0x152D3, size: 0x8, addend: 0x0, symName: __ZNSt3__112__to_addressB8ne200100INS_10shared_ptrI8GeometryEEEEPT_S5_, symObjAddr: 0x20F48, symBinAddr: 0x100024010, symSize: 0x14 }
  - { offset: 0x15308, size: 0x8, addend: 0x0, symName: __ZNSt3__134__libcpp_atomic_refcount_incrementB8ne200100IlEET_RS1_, symObjAddr: 0x21158, symBinAddr: 0x100024220, symSize: 0x30 }
  - { offset: 0x1533E, size: 0x8, addend: 0x0, symName: __ZNSt3__119__allocator_destroyB8ne200100INS_9allocatorINS_10shared_ptrI8GeometryEEEENS_16reverse_iteratorIPS4_EES8_EEvRT_T0_T1_, symObjAddr: 0x21240, symBinAddr: 0x100024308, symSize: 0x70 }
  - { offset: 0x153A1, size: 0x8, addend: 0x0, symName: __ZNSt3__1neB8ne200100IPNS_10shared_ptrI8GeometryEES4_EEbRKNS_16reverse_iteratorIT_EERKNS5_IT0_EE, symObjAddr: 0x212E4, symBinAddr: 0x1000243AC, symSize: 0x44 }
  - { offset: 0x153ED, size: 0x8, addend: 0x0, symName: __ZNSt3__112__to_addressB8ne200100INS_16reverse_iteratorIPNS_10shared_ptrI8GeometryEEEETnNS_9enable_ifIXsr4_AndINS_8is_classIT_EENS_15_IsFancyPointerIS9_EEEE5valueEiE4typeELi0EEEu7__decayIDTclsr19__to_address_helperIS9_EE6__callclsr3stdE7declvalIRKS9_EEEEESG_, symObjAddr: 0x21354, symBinAddr: 0x10002441C, symSize: 0x24 }
  - { offset: 0x1549B, size: 0x8, addend: 0x0, symName: __ZNSt3__119__libcpp_deallocateB8ne200100INS_10shared_ptrI8GeometryEEEEvPNS_15__type_identityIT_E4typeENS_15__element_countEm, symObjAddr: 0x21788, symBinAddr: 0x100024850, symSize: 0x6C }
  - { offset: 0x15513, size: 0x8, addend: 0x0, symName: __ZNSt3__124__libcpp_operator_deleteB8ne200100IJPNS_10shared_ptrI8GeometryEEmSt11align_val_tEEEvDpT_, symObjAddr: 0x217F4, symBinAddr: 0x1000248BC, symSize: 0x34 }
  - { offset: 0x1556D, size: 0x8, addend: 0x0, symName: __ZNSt3__124__libcpp_operator_deleteB8ne200100IJPNS_10shared_ptrI8GeometryEEmEEEvDpT_, symObjAddr: 0x21828, symBinAddr: 0x1000248F0, symSize: 0x2C }
  - { offset: 0x155B3, size: 0x8, addend: 0x0, symName: __ZNSt3__134__libcpp_atomic_refcount_decrementB8ne200100IlEET_RS1_, symObjAddr: 0x21954, symBinAddr: 0x100024A1C, symSize: 0x30 }
  - { offset: 0x156D2, size: 0x8, addend: 0x0, symName: __ZNSt3__13minB8ne200100IdEERKT_S3_S3_, symObjAddr: 0x23AF0, symBinAddr: 0x100026BB8, symSize: 0x2C }
  - { offset: 0x15715, size: 0x8, addend: 0x0, symName: __ZNSt3__1lsB8ne200100INS_11char_traitsIcEEEERNS_13basic_ostreamIcT_EES6_PKc, symObjAddr: 0x23BCC, symBinAddr: 0x100026C94, symSize: 0x48 }
  - { offset: 0x1575B, size: 0x8, addend: 0x0, symName: __ZNSt3__14endlB8ne200100IcNS_11char_traitsIcEEEERNS_13basic_ostreamIT_T0_EES7_, symObjAddr: 0x23C58, symBinAddr: 0x100026D20, symSize: 0x54 }
  - { offset: 0x1579B, size: 0x8, addend: 0x0, symName: __ZNSt3__122__make_exception_guardB8ne200100INS_6vectorIhNS_9allocatorIhEEE16__destroy_vectorEEENS_28__exception_guard_exceptionsIT_EES7_, symObjAddr: 0x23DD0, symBinAddr: 0x100026E98, symSize: 0x40 }
  - { offset: 0x157D0, size: 0x8, addend: 0x0, symName: __ZNSt3__119__allocate_at_leastB8ne200100INS_9allocatorIhEEEENS_19__allocation_resultINS_16allocator_traitsIT_E7pointerEEERS5_m, symObjAddr: 0x24100, symBinAddr: 0x1000271C8, symSize: 0x40 }
  - { offset: 0x15813, size: 0x8, addend: 0x0, symName: __ZNSt3__117__libcpp_allocateB8ne200100IhEEPT_NS_15__element_countEm, symObjAddr: 0x241DC, symBinAddr: 0x1000272A4, symSize: 0x6C }
  - { offset: 0x15880, size: 0x8, addend: 0x0, symName: __ZNSt3__112__to_addressB8ne200100IhEEPT_S2_, symObjAddr: 0x242B8, symBinAddr: 0x100027380, symSize: 0x14 }
  - { offset: 0x158B6, size: 0x8, addend: 0x0, symName: __ZNSt3__119__libcpp_deallocateB8ne200100IhEEvPNS_15__type_identityIT_E4typeENS_15__element_countEm, symObjAddr: 0x24624, symBinAddr: 0x1000276EC, symSize: 0x6C }
  - { offset: 0x1592E, size: 0x8, addend: 0x0, symName: __ZNSt3__124__libcpp_operator_deleteB8ne200100IJPhmSt11align_val_tEEEvDpT_, symObjAddr: 0x24690, symBinAddr: 0x100027758, symSize: 0x34 }
  - { offset: 0x15988, size: 0x8, addend: 0x0, symName: __ZNSt3__124__libcpp_operator_deleteB8ne200100IJPhmEEEvDpT_, symObjAddr: 0x246C4, symBinAddr: 0x10002778C, symSize: 0x2C }
  - { offset: 0x159CE, size: 0x8, addend: 0x0, symName: __ZNSt3__1neB8ne200100IPNS_10shared_ptrI11LightSourceEEEEbRKNS_11__wrap_iterIT_EES9_, symObjAddr: 0x24E38, symBinAddr: 0x100027F00, symSize: 0x30 }
  - { offset: 0x15A11, size: 0x8, addend: 0x0, symName: __ZNSt3__13maxB8ne200100IdEERKT_S3_S3_, symObjAddr: 0x24E98, symBinAddr: 0x100027F60, symSize: 0x2C }
  - { offset: 0x15E54, size: 0x8, addend: 0x0, symName: __ZNSt3__1eqB8ne200100IPNS_10shared_ptrI11LightSourceEEEEbRKNS_11__wrap_iterIT_EES9_, symObjAddr: 0x25188, symBinAddr: 0x100028250, symSize: 0x44 }
  - { offset: 0x15E97, size: 0x8, addend: 0x0, symName: __ZNSt3__13maxB8ne200100IdNS_6__lessIvvEEEERKT_S5_S5_T0_, symObjAddr: 0x251E4, symBinAddr: 0x1000282AC, symSize: 0x54 }
  - { offset: 0x15EF1, size: 0x8, addend: 0x0, symName: __ZNSt3__13minB8ne200100IdNS_6__lessIvvEEEERKT_S5_S5_T0_, symObjAddr: 0x25268, symBinAddr: 0x100028330, symSize: 0x54 }
  - { offset: 0x15F4B, size: 0x8, addend: 0x0, symName: __ZNSt3__116__pad_and_outputB8ne200100IcNS_11char_traitsIcEEEENS_19ostreambuf_iteratorIT_T0_EES6_PKS4_S8_S8_RNS_8ios_baseES4_, symObjAddr: 0x256F8, symBinAddr: 0x1000287C0, symSize: 0x214 }
  - { offset: 0x1600F, size: 0x8, addend: 0x0, symName: __ZNSt3__112__to_addressB8ne200100IcEEPT_S2_, symObjAddr: 0x25B9C, symBinAddr: 0x100028C64, symSize: 0x14 }
  - { offset: 0x16077, size: 0x8, addend: 0x0, symName: __ZNSt3__19use_facetB8ne200100INS_5ctypeIcEEEERKT_RKNS_6localeE, symObjAddr: 0x25E00, symBinAddr: 0x100028EC8, symSize: 0x2C }
  - { offset: 0x165A4, size: 0x8, addend: 0x0, symName: __ZNSt3__118__constexpr_strlenB8ne200100IcEEmPKT_, symObjAddr: 0x25E94, symBinAddr: 0x100028F5C, symSize: 0x24 }
  - { offset: 0x165D9, size: 0x8, addend: 0x0, symName: __ZNSt3__111make_sharedB8ne200100I10PointLightJ6VectordETnNS_9enable_ifIXntsr8is_arrayIT_EE5valueEiE4typeELi0EEENS_10shared_ptrIS4_EEDpOT0_, symObjAddr: 0x26368, symBinAddr: 0x100029430, symSize: 0x48 }
  - { offset: 0x16883, size: 0x8, addend: 0x0, symName: __ZNSt3__130__uninitialized_allocator_copyB8ne200100INS_9allocatorINS_10shared_ptrI8GeometryEEEEPS4_S6_S6_EET2_RT_T0_T1_S7_, symObjAddr: 0x26710, symBinAddr: 0x1000297D8, symSize: 0x80 }
  - { offset: 0x16920, size: 0x8, addend: 0x0, symName: __ZNSt3__114__unwrap_rangeB8ne200100IPNS_10shared_ptrI8GeometryEES4_EENS_4pairIT0_S6_EET_S8_, symObjAddr: 0x26790, symBinAddr: 0x100029858, symSize: 0x60 }
  - { offset: 0x1696C, size: 0x8, addend: 0x0, symName: __ZNSt3__135__uninitialized_allocator_copy_implB8ne200100INS_9allocatorINS_10shared_ptrI8GeometryEEEEPS4_S6_S6_EET2_RT_T0_T1_S7_, symObjAddr: 0x267F0, symBinAddr: 0x1000298B8, symSize: 0xF0 }
  - { offset: 0x16A0A, size: 0x8, addend: 0x0, symName: __ZNSt3__19make_pairB8ne200100IPNS_10shared_ptrI8GeometryEES4_EENS_4pairINS_18__unwrap_referenceIu7__decayIT_EE4typeENS6_Iu7__decayIT0_EE4typeEEEOS7_OSB_, symObjAddr: 0x268E0, symBinAddr: 0x1000299A8, symSize: 0x38 }
  - { offset: 0x16B43, size: 0x8, addend: 0x0, symName: __ZNSt3__13maxB8ne200100ImEERKT_S3_S3_, symObjAddr: 0x26EBC, symBinAddr: 0x100029F84, symSize: 0x2C }
  - { offset: 0x16B86, size: 0x8, addend: 0x0, symName: __ZNSt3__13maxB8ne200100ImNS_6__lessIvvEEEERKT_S5_S5_T0_, symObjAddr: 0x26EE8, symBinAddr: 0x100029FB0, symSize: 0x54 }
  - { offset: 0x16BE1, size: 0x8, addend: 0x0, symName: __ZNSt3__134__uninitialized_allocator_relocateB8ne200100INS_9allocatorINS_10shared_ptrI8GeometryEEEEPS4_EEvRT_T0_S9_S9_, symObjAddr: 0x26FF4, symBinAddr: 0x10002A0BC, symSize: 0x60 }
  - { offset: 0x16C4A, size: 0x8, addend: 0x0, symName: __ZNSt3__14swapB8ne200100IPNS_10shared_ptrI8GeometryEEEENS_9enable_ifIXaasr21is_move_constructibleIT_EE5valuesr18is_move_assignableIS6_EE5valueEvE4typeERS6_S9_, symObjAddr: 0x27054, symBinAddr: 0x10002A11C, symSize: 0x3C }
  - { offset: 0x16C9B, size: 0x8, addend: 0x0, symName: __ZNSt3__115allocate_sharedB8ne200100I10PointLightNS_9allocatorIS1_EEJ6VectordETnNS_9enable_ifIXntsr8is_arrayIT_EE5valueEiE4typeELi0EEENS_10shared_ptrIS6_EERKT0_DpOT1_, symObjAddr: 0x27200, symBinAddr: 0x10002A2C8, symSize: 0xD0 }
  - { offset: 0x17068, size: 0x8, addend: 0x0, symName: __ZNSt3__117__libcpp_allocateB8ne200100INS_20__shared_ptr_emplaceI10PointLightNS_9allocatorIS2_EEEEEEPT_NS_15__element_countEm, symObjAddr: 0x27608, symBinAddr: 0x10002A6D0, symSize: 0x70 }
  - { offset: 0x171DA, size: 0x8, addend: 0x0, symName: __ZNSt3__119__libcpp_deallocateB8ne200100INS_20__shared_ptr_emplaceI10PointLightNS_9allocatorIS2_EEEEEEvPNS_15__type_identityIT_E4typeENS_15__element_countEm, symObjAddr: 0x27D1C, symBinAddr: 0x10002ADE4, symSize: 0x70 }
  - { offset: 0x17252, size: 0x8, addend: 0x0, symName: __ZNSt3__124__libcpp_operator_deleteB8ne200100IJPNS_20__shared_ptr_emplaceI10PointLightNS_9allocatorIS2_EEEEmSt11align_val_tEEEvDpT_, symObjAddr: 0x27D8C, symBinAddr: 0x10002AE54, symSize: 0x34 }
  - { offset: 0x172AC, size: 0x8, addend: 0x0, symName: __ZNSt3__124__libcpp_operator_deleteB8ne200100IJPNS_20__shared_ptr_emplaceI10PointLightNS_9allocatorIS2_EEEEmEEEvDpT_, symObjAddr: 0x27DC0, symBinAddr: 0x10002AE88, symSize: 0x2C }
  - { offset: 0x172F2, size: 0x8, addend: 0x0, symName: __ZNSt3__122__make_exception_guardB8ne200100INS_6vectorINS_10shared_ptrI11LightSourceEENS_9allocatorIS4_EEE16__destroy_vectorEEENS_28__exception_guard_exceptionsIT_EESA_, symObjAddr: 0x2813C, symBinAddr: 0x10002B204, symSize: 0x40 }
  - { offset: 0x17327, size: 0x8, addend: 0x0, symName: __ZNSt3__119__allocate_at_leastB8ne200100INS_9allocatorINS_10shared_ptrI11LightSourceEEEEEENS_19__allocation_resultINS_16allocator_traitsIT_E7pointerEEERS8_m, symObjAddr: 0x283F4, symBinAddr: 0x10002B4BC, symSize: 0x40 }
  - { offset: 0x1736A, size: 0x8, addend: 0x0, symName: __ZNSt3__117__libcpp_allocateB8ne200100INS_10shared_ptrI11LightSourceEEEEPT_NS_15__element_countEm, symObjAddr: 0x284D0, symBinAddr: 0x10002B598, symSize: 0x6C }
  - { offset: 0x173D7, size: 0x8, addend: 0x0, symName: __ZNSt3__130__uninitialized_allocator_copyB8ne200100INS_9allocatorINS_10shared_ptrI11LightSourceEEEEPKS4_S7_PS4_EET2_RT_T0_T1_S9_, symObjAddr: 0x28578, symBinAddr: 0x10002B640, symSize: 0x80 }
  - { offset: 0x17474, size: 0x8, addend: 0x0, symName: __ZNSt3__114__unwrap_rangeB8ne200100IPKNS_10shared_ptrI11LightSourceEES5_EENS_4pairIT0_S7_EET_S9_, symObjAddr: 0x28668, symBinAddr: 0x10002B730, symSize: 0x60 }
  - { offset: 0x174C0, size: 0x8, addend: 0x0, symName: __ZNSt3__135__uninitialized_allocator_copy_implB8ne200100INS_9allocatorINS_10shared_ptrI11LightSourceEEEEPKS4_S7_PS4_EET2_RT_T0_T1_S9_, symObjAddr: 0x286C8, symBinAddr: 0x10002B790, symSize: 0xF0 }
  - { offset: 0x1755E, size: 0x8, addend: 0x0, symName: __ZNSt3__113__unwrap_iterB8ne200100IPNS_10shared_ptrI11LightSourceEENS_18__unwrap_iter_implIS4_Lb1EEETnNS_9enable_ifIXsr21is_copy_constructibleIT_EE5valueEiE4typeELi0EEEDTclsrT0_8__unwrapclsr3stdE7declvalIS8_EEEES8_, symObjAddr: 0x287B8, symBinAddr: 0x10002B880, symSize: 0x24 }
  - { offset: 0x175A2, size: 0x8, addend: 0x0, symName: __ZNSt3__113__rewrap_iterB8ne200100IPNS_10shared_ptrI11LightSourceEES4_NS_18__unwrap_iter_implIS4_Lb1EEEEET_S7_T0_, symObjAddr: 0x287DC, symBinAddr: 0x10002B8A4, symSize: 0x3C }
  - { offset: 0x175F7, size: 0x8, addend: 0x0, symName: __ZNSt3__19make_pairB8ne200100IPKNS_10shared_ptrI11LightSourceEES5_EENS_4pairINS_18__unwrap_referenceIu7__decayIT_EE4typeENS7_Iu7__decayIT0_EE4typeEEEOS8_OSC_, symObjAddr: 0x28818, symBinAddr: 0x10002B8E0, symSize: 0x38 }
  - { offset: 0x17646, size: 0x8, addend: 0x0, symName: __ZNSt3__113__unwrap_iterB8ne200100IPKNS_10shared_ptrI11LightSourceEENS_18__unwrap_iter_implIS5_Lb1EEETnNS_9enable_ifIXsr21is_copy_constructibleIT_EE5valueEiE4typeELi0EEEDTclsrT0_8__unwrapclsr3stdE7declvalIS9_EEEES9_, symObjAddr: 0x28850, symBinAddr: 0x10002B918, symSize: 0x24 }
  - { offset: 0x177BC, size: 0x8, addend: 0x0, symName: __ZNSt3__112__to_addressB8ne200100IKNS_10shared_ptrI11LightSourceEEEEPT_S6_, symObjAddr: 0x28908, symBinAddr: 0x10002B9D0, symSize: 0x14 }
  - { offset: 0x177F1, size: 0x8, addend: 0x0, symName: __ZNSt3__122__make_exception_guardB8ne200100INS_29_AllocatorDestroyRangeReverseINS_9allocatorINS_10shared_ptrI11LightSourceEEEEPS5_EEEENS_28__exception_guard_exceptionsIT_EESA_, symObjAddr: 0x2891C, symBinAddr: 0x10002B9E4, symSize: 0x4C }
  - { offset: 0x17827, size: 0x8, addend: 0x0, symName: __ZNSt3__112__to_addressB8ne200100INS_10shared_ptrI11LightSourceEEEEPT_S5_, symObjAddr: 0x289E0, symBinAddr: 0x10002BAA8, symSize: 0x14 }
  - { offset: 0x1785D, size: 0x8, addend: 0x0, symName: __ZNSt3__119__allocator_destroyB8ne200100INS_9allocatorINS_10shared_ptrI11LightSourceEEEENS_16reverse_iteratorIPS4_EES8_EEvRT_T0_T1_, symObjAddr: 0x28BC0, symBinAddr: 0x10002BC88, symSize: 0x70 }
  - { offset: 0x178C0, size: 0x8, addend: 0x0, symName: __ZNSt3__1neB8ne200100IPNS_10shared_ptrI11LightSourceEES4_EEbRKNS_16reverse_iteratorIT_EERKNS5_IT0_EE, symObjAddr: 0x28C64, symBinAddr: 0x10002BD2C, symSize: 0x44 }
  - { offset: 0x1790C, size: 0x8, addend: 0x0, symName: __ZNSt3__112__to_addressB8ne200100INS_16reverse_iteratorIPNS_10shared_ptrI11LightSourceEEEETnNS_9enable_ifIXsr4_AndINS_8is_classIT_EENS_15_IsFancyPointerIS9_EEEE5valueEiE4typeELi0EEEu7__decayIDTclsr19__to_address_helperIS9_EE6__callclsr3stdE7declvalIRKS9_EEEEESG_, symObjAddr: 0x28CD4, symBinAddr: 0x10002BD9C, symSize: 0x24 }
  - { offset: 0x179BA, size: 0x8, addend: 0x0, symName: __ZNSt3__119__libcpp_deallocateB8ne200100INS_10shared_ptrI11LightSourceEEEEvPNS_15__type_identityIT_E4typeENS_15__element_countEm, symObjAddr: 0x290E0, symBinAddr: 0x10002C1A8, symSize: 0x6C }
  - { offset: 0x17A32, size: 0x8, addend: 0x0, symName: __ZNSt3__124__libcpp_operator_deleteB8ne200100IJPNS_10shared_ptrI11LightSourceEEmSt11align_val_tEEEvDpT_, symObjAddr: 0x2914C, symBinAddr: 0x10002C214, symSize: 0x34 }
  - { offset: 0x17A8C, size: 0x8, addend: 0x0, symName: __ZNSt3__124__libcpp_operator_deleteB8ne200100IJPNS_10shared_ptrI11LightSourceEEmEEEvDpT_, symObjAddr: 0x29180, symBinAddr: 0x10002C248, symSize: 0x2C }
  - { offset: 0x17AD2, size: 0x8, addend: 0x0, symName: __ZNSt3__130__uninitialized_allocator_copyB8ne200100INS_9allocatorINS_10shared_ptrI11LightSourceEEEEPS4_S6_S6_EET2_RT_T0_T1_S7_, symObjAddr: 0x293B8, symBinAddr: 0x10002C480, symSize: 0x80 }
  - { offset: 0x17B6F, size: 0x8, addend: 0x0, symName: __ZNSt3__114__unwrap_rangeB8ne200100IPNS_10shared_ptrI11LightSourceEES4_EENS_4pairIT0_S6_EET_S8_, symObjAddr: 0x29438, symBinAddr: 0x10002C500, symSize: 0x60 }
  - { offset: 0x17BBB, size: 0x8, addend: 0x0, symName: __ZNSt3__135__uninitialized_allocator_copy_implB8ne200100INS_9allocatorINS_10shared_ptrI11LightSourceEEEEPS4_S6_S6_EET2_RT_T0_T1_S7_, symObjAddr: 0x29498, symBinAddr: 0x10002C560, symSize: 0xF0 }
  - { offset: 0x17C59, size: 0x8, addend: 0x0, symName: __ZNSt3__19make_pairB8ne200100IPNS_10shared_ptrI11LightSourceEES4_EENS_4pairINS_18__unwrap_referenceIu7__decayIT_EE4typeENS6_Iu7__decayIT0_EE4typeEEEOS7_OSB_, symObjAddr: 0x29588, symBinAddr: 0x10002C650, symSize: 0x38 }
  - { offset: 0x17D92, size: 0x8, addend: 0x0, symName: __ZNSt3__111make_sharedB8ne200100I6SphereJ6VectoriS2_bETnNS_9enable_ifIXntsr8is_arrayIT_EE5valueEiE4typeELi0EEENS_10shared_ptrIS4_EEDpOT0_, symObjAddr: 0x2A0D8, symBinAddr: 0x10002D1A0, symSize: 0x58 }
  - { offset: 0x17E16, size: 0x8, addend: 0x0, symName: __ZNSt3__111make_sharedB8ne200100I6SphereJ6VectoriS2_bbdETnNS_9enable_ifIXntsr8is_arrayIT_EE5valueEiE4typeELi0EEENS_10shared_ptrIS4_EEDpOT0_, symObjAddr: 0x2A130, symBinAddr: 0x10002D1F8, symSize: 0x68 }
  - { offset: 0x17EC2, size: 0x8, addend: 0x0, symName: __ZNSt3__111make_sharedB8ne200100I6SphereJ6VectordS2_bbiETnNS_9enable_ifIXntsr8is_arrayIT_EE5valueEiE4typeELi0EEENS_10shared_ptrIS4_EEDpOT0_, symObjAddr: 0x2A198, symBinAddr: 0x10002D260, symSize: 0x68 }
  - { offset: 0x17F6E, size: 0x8, addend: 0x0, symName: __ZNSt3__115allocate_sharedB8ne200100I6SphereNS_9allocatorIS1_EEJ6VectoriS4_bETnNS_9enable_ifIXntsr8is_arrayIT_EE5valueEiE4typeELi0EEENS_10shared_ptrIS6_EERKT0_DpOT1_, symObjAddr: 0x2A338, symBinAddr: 0x10002D400, symSize: 0xE0 }
  - { offset: 0x1802A, size: 0x8, addend: 0x0, symName: __ZNSt3__115allocate_sharedB8ne200100I6SphereNS_9allocatorIS1_EEJ6VectoriS4_bbdETnNS_9enable_ifIXntsr8is_arrayIT_EE5valueEiE4typeELi0EEENS_10shared_ptrIS6_EERKT0_DpOT1_, symObjAddr: 0x2A5F0, symBinAddr: 0x10002D6B8, symSize: 0xF0 }
  - { offset: 0x18110, size: 0x8, addend: 0x0, symName: __ZNSt3__115allocate_sharedB8ne200100I6SphereNS_9allocatorIS1_EEJ6VectordS4_bbiETnNS_9enable_ifIXntsr8is_arrayIT_EE5valueEiE4typeELi0EEENS_10shared_ptrIS6_EERKT0_DpOT1_, symObjAddr: 0x2A8F8, symBinAddr: 0x10002D9C0, symSize: 0xF0 }
  - { offset: 0x181F6, size: 0x8, addend: 0x0, symName: __ZNSt3__18distanceB8ne200100INS_11__wrap_iterIPNS_10shared_ptrI8GeometryEEEEEENS_15iterator_traitsIT_E15difference_typeES8_S8_, symObjAddr: 0x2AEC8, symBinAddr: 0x10002DF90, symSize: 0x3C }
  - { offset: 0x18239, size: 0x8, addend: 0x0, symName: __ZNSt3__1miB8ne200100IPKNS_10shared_ptrI8GeometryEEPS3_EEDTmicldtfp_4baseEcldtfp0_4baseEERKNS_11__wrap_iterIT_EERKNS8_IT0_EE, symObjAddr: 0x2AF04, symBinAddr: 0x10002DFCC, symSize: 0x48 }
  - { offset: 0x18285, size: 0x8, addend: 0x0, symName: __ZNSt3__14nextB8ne200100INS_11__wrap_iterIPNS_10shared_ptrI8GeometryEEEETnNS_9enable_ifIXsr29__has_input_iterator_categoryIT_EE5valueEiE4typeELi0EEES8_S8_NS_15iterator_traitsIS8_E15difference_typeE, symObjAddr: 0x2AF4C, symBinAddr: 0x10002E014, symSize: 0x3C }
  - { offset: 0x182CE, size: 0x8, addend: 0x0, symName: __ZNSt3__14copyB8ne200100INS_11__wrap_iterIPNS_10shared_ptrI8GeometryEEEES5_EET0_T_S8_S7_, symObjAddr: 0x2B13C, symBinAddr: 0x10002E204, symSize: 0x50 }
  - { offset: 0x18328, size: 0x8, addend: 0x0, symName: __ZNSt3__121__convert_to_integralB8ne200100El, symObjAddr: 0x2B4C0, symBinAddr: 0x10002E588, symSize: 0x14 }
  - { offset: 0x18355, size: 0x8, addend: 0x0, symName: __ZNSt3__19__advanceB8ne200100INS_11__wrap_iterIPNS_10shared_ptrI8GeometryEEEEEEvRT_NS_15iterator_traitsIS7_E15difference_typeENS_26random_access_iterator_tagE, symObjAddr: 0x2B4D4, symBinAddr: 0x10002E59C, symSize: 0x2C }
  - { offset: 0x1839F, size: 0x8, addend: 0x0, symName: __ZNSt3__130__uninitialized_allocator_copyB8ne200100INS_9allocatorINS_10shared_ptrI8GeometryEEEENS_11__wrap_iterIPS4_EES8_S7_EET2_RT_T0_T1_S9_, symObjAddr: 0x2B528, symBinAddr: 0x10002E5F0, symSize: 0x90 }
  - { offset: 0x1843C, size: 0x8, addend: 0x0, symName: __ZNSt3__114__unwrap_rangeB8ne200100INS_11__wrap_iterIPNS_10shared_ptrI8GeometryEEEES5_EENS_4pairIT0_S8_EET_SA_, symObjAddr: 0x2B5B8, symBinAddr: 0x10002E680, symSize: 0x70 }
  - { offset: 0x18488, size: 0x8, addend: 0x0, symName: __ZNSt3__113__unwrap_iterB8ne200100INS_11__wrap_iterIPNS_10shared_ptrI8GeometryEEEENS_18__unwrap_iter_implIS6_Lb1EEETnNS_9enable_ifIXsr21is_copy_constructibleIT_EE5valueEiE4typeELi0EEEDTclsrT0_8__unwrapclsr3stdE7declvalISA_EEEESA_, symObjAddr: 0x2B628, symBinAddr: 0x10002E6F0, symSize: 0x2C }
  - { offset: 0x18590, size: 0x8, addend: 0x0, symName: __ZNSt3__112__to_addressB8ne200100INS_11__wrap_iterIPNS_10shared_ptrI8GeometryEEEETnNS_9enable_ifIXsr4_AndINS_8is_classIT_EENS_15_IsFancyPointerIS9_EEEE5valueEiE4typeELi0EEEu7__decayIDTclsr19__to_address_helperIS9_EE6__callclsr3stdE7declvalIRKS9_EEEEESG_, symObjAddr: 0x2B67C, symBinAddr: 0x10002E744, symSize: 0x24 }
  - { offset: 0x185F5, size: 0x8, addend: 0x0, symName: __ZNSt3__113move_backwardB8ne200100IPNS_10shared_ptrI8GeometryEES4_EET0_T_S6_S5_, symObjAddr: 0x2B6FC, symBinAddr: 0x10002E7C4, symSize: 0x40 }
  - { offset: 0x1864F, size: 0x8, addend: 0x0, symName: __ZNSt3__115__move_backwardB8ne200100INS_17_ClassicAlgPolicyEPNS_10shared_ptrI8GeometryEES5_S5_EENS_4pairIT0_T2_EES7_T1_S8_, symObjAddr: 0x2B73C, symBinAddr: 0x10002E804, symSize: 0x44 }
  - { offset: 0x186BB, size: 0x8, addend: 0x0, symName: __ZNSt3__124__copy_move_unwrap_itersB8ne200100INS_20__move_backward_implINS_17_ClassicAlgPolicyEEEPNS_10shared_ptrI8GeometryEES7_S7_TnNS_9enable_ifIXsr12__can_rewrapIT0_T2_EE5valueEiE4typeELi0EEENS_4pairIS9_SA_EES9_T1_SA_, symObjAddr: 0x2B780, symBinAddr: 0x10002E848, symSize: 0xB4 }
  - { offset: 0x187A8, size: 0x8, addend: 0x0, symName: __ZNSt3__114__rewrap_rangeB8ne200100IPNS_10shared_ptrI8GeometryEES4_EET_S5_T0_, symObjAddr: 0x2B8D4, symBinAddr: 0x10002E99C, symSize: 0x2C }
  - { offset: 0x18863, size: 0x8, addend: 0x0, symName: __ZNSt3__14swapB8ne200100IP8GeometryEENS_9enable_ifIXaasr21is_move_constructibleIT_EE5valuesr18is_move_assignableIS4_EE5valueEvE4typeERS4_S7_, symObjAddr: 0x2B9D8, symBinAddr: 0x10002EAA0, symSize: 0x3C }
  - { offset: 0x188B4, size: 0x8, addend: 0x0, symName: __ZNSt3__14swapB8ne200100IPNS_19__shared_weak_countEEENS_9enable_ifIXaasr21is_move_constructibleIT_EE5valuesr18is_move_assignableIS4_EE5valueEvE4typeERS4_S7_, symObjAddr: 0x2BA14, symBinAddr: 0x10002EADC, symSize: 0x3C }
  - { offset: 0x18905, size: 0x8, addend: 0x0, symName: __ZNSt3__16__copyB8ne200100INS_11__wrap_iterIPNS_10shared_ptrI8GeometryEEEES6_S5_EENS_4pairIT_T1_EES8_T0_S9_, symObjAddr: 0x2BA50, symBinAddr: 0x10002EB18, symSize: 0x54 }
  - { offset: 0x18968, size: 0x8, addend: 0x0, symName: __ZNSt3__124__copy_move_unwrap_itersB8ne200100INS_11__copy_implENS_11__wrap_iterIPNS_10shared_ptrI8GeometryEEEES7_S6_TnNS_9enable_ifIXsr12__can_rewrapIT0_T2_EE5valueEiE4typeELi0EEENS_4pairIS9_SA_EES9_T1_SA_, symObjAddr: 0x2BAA4, symBinAddr: 0x10002EB6C, symSize: 0xCC }
  - { offset: 0x18B43, size: 0x8, addend: 0x0, symName: __ZNSt3__19make_pairB8ne200100INS_11__wrap_iterIPNS_10shared_ptrI8GeometryEEEES5_EENS_4pairINS_18__unwrap_referenceIu7__decayIT_EE4typeENS8_Iu7__decayIT0_EE4typeEEEOS9_OSD_, symObjAddr: 0x2BBF4, symBinAddr: 0x10002ECBC, symSize: 0x38 }
  - { offset: 0x18B92, size: 0x8, addend: 0x0, symName: __ZNSt3__114__rewrap_rangeB8ne200100INS_11__wrap_iterIPNS_10shared_ptrI8GeometryEEEES5_EET_S7_T0_, symObjAddr: 0x2BC2C, symBinAddr: 0x10002ECF4, symSize: 0x3C }
  - { offset: 0x18CC8, size: 0x8, addend: 0x0, symName: __ZNSt3__113__rewrap_iterB8ne200100INS_11__wrap_iterIPNS_10shared_ptrI8GeometryEEEES5_NS_18__unwrap_iter_implIS6_Lb1EEEEET_S9_T0_, symObjAddr: 0x2BD28, symBinAddr: 0x10002EDF0, symSize: 0x4C }
  - { offset: 0x18D1D, size: 0x8, addend: 0x0, symName: __ZNSt3__110__distanceB8ne200100INS_11__wrap_iterIPNS_10shared_ptrI8GeometryEEEEEENS_15iterator_traitsIT_E15difference_typeES8_S8_NS_26random_access_iterator_tagE, symObjAddr: 0x2BF64, symBinAddr: 0x10002F02C, symSize: 0x30 }
  - { offset: 0x18D6B, size: 0x8, addend: 0x0, symName: __ZNSt3__1miB8ne200100IPNS_10shared_ptrI8GeometryEES4_EEDTmicldtfp_4baseEcldtfp0_4baseEERKNS_11__wrap_iterIT_EERKNS6_IT0_EE, symObjAddr: 0x2BF94, symBinAddr: 0x10002F05C, symSize: 0x48 }
  - { offset: 0x18DB7, size: 0x8, addend: 0x0, symName: __ZNSt3__111make_sharedB8ne200100I11SphereLightJ6VectoriS2_dETnNS_9enable_ifIXntsr8is_arrayIT_EE5valueEiE4typeELi0EEENS_10shared_ptrIS4_EEDpOT0_, symObjAddr: 0x2C450, symBinAddr: 0x10002F518, symSize: 0x58 }
  - { offset: 0x19089, size: 0x8, addend: 0x0, symName: __ZNSt3__115allocate_sharedB8ne200100I11SphereLightNS_9allocatorIS1_EEJ6VectoriS4_dETnNS_9enable_ifIXntsr8is_arrayIT_EE5valueEiE4typeELi0EEENS_10shared_ptrIS6_EERKT0_DpOT1_, symObjAddr: 0x2C508, symBinAddr: 0x10002F5D0, symSize: 0xE0 }
  - { offset: 0x1947F, size: 0x8, addend: 0x0, symName: __ZNSt3__117__libcpp_allocateB8ne200100INS_20__shared_ptr_emplaceI11SphereLightNS_9allocatorIS2_EEEEEEPT_NS_15__element_countEm, symObjAddr: 0x2C930, symBinAddr: 0x10002F9F8, symSize: 0x70 }
  - { offset: 0x19605, size: 0x8, addend: 0x0, symName: __ZNSt3__119__libcpp_deallocateB8ne200100INS_20__shared_ptr_emplaceI11SphereLightNS_9allocatorIS2_EEEEEEvPNS_15__type_identityIT_E4typeENS_15__element_countEm, symObjAddr: 0x2D120, symBinAddr: 0x1000301E8, symSize: 0x70 }
  - { offset: 0x1967D, size: 0x8, addend: 0x0, symName: __ZNSt3__124__libcpp_operator_deleteB8ne200100IJPNS_20__shared_ptr_emplaceI11SphereLightNS_9allocatorIS2_EEEEmSt11align_val_tEEEvDpT_, symObjAddr: 0x2D190, symBinAddr: 0x100030258, symSize: 0x34 }
  - { offset: 0x196D7, size: 0x8, addend: 0x0, symName: __ZNSt3__124__libcpp_operator_deleteB8ne200100IJPNS_20__shared_ptr_emplaceI11SphereLightNS_9allocatorIS2_EEEEmEEEvDpT_, symObjAddr: 0x2D1C4, symBinAddr: 0x10003028C, symSize: 0x2C }
  - { offset: 0x1971D, size: 0x8, addend: 0x0, symName: __ZNSt3__111make_sharedB8ne200100I12TriangleMeshJRS1_ETnNS_9enable_ifIXntsr8is_arrayIT_EE5valueEiE4typeELi0EEENS_10shared_ptrIS4_EEDpOT0_, symObjAddr: 0x2F950, symBinAddr: 0x100032A18, symSize: 0x40 }
  - { offset: 0x199B3, size: 0x8, addend: 0x0, symName: __ZNSt3__112__to_addressB8ne200100I6VectorEEPT_S3_, symObjAddr: 0x310C4, symBinAddr: 0x10003418C, symSize: 0x14 }
  - { offset: 0x199E9, size: 0x8, addend: 0x0, symName: __ZNSt3__119__libcpp_deallocateB8ne200100I6VectorEEvPNS_15__type_identityIT_E4typeENS_15__element_countEm, symObjAddr: 0x31120, symBinAddr: 0x1000341E8, symSize: 0x70 }
  - { offset: 0x19A61, size: 0x8, addend: 0x0, symName: __ZNSt3__124__libcpp_operator_deleteB8ne200100IJP6VectormSt11align_val_tEEEvDpT_, symObjAddr: 0x31190, symBinAddr: 0x100034258, symSize: 0x34 }
  - { offset: 0x19ABB, size: 0x8, addend: 0x0, symName: __ZNSt3__124__libcpp_operator_deleteB8ne200100IJP6VectormEEEvDpT_, symObjAddr: 0x311C4, symBinAddr: 0x10003428C, symSize: 0x2C }
  - { offset: 0x19B01, size: 0x8, addend: 0x0, symName: __ZNSt3__112__to_addressB8ne200100I15TriangleIndicesEEPT_S3_, symObjAddr: 0x31478, symBinAddr: 0x100034540, symSize: 0x14 }
  - { offset: 0x19B37, size: 0x8, addend: 0x0, symName: __ZNSt3__119__libcpp_deallocateB8ne200100I15TriangleIndicesEEvPNS_15__type_identityIT_E4typeENS_15__element_countEm, symObjAddr: 0x314D4, symBinAddr: 0x10003459C, symSize: 0x70 }
  - { offset: 0x19BAF, size: 0x8, addend: 0x0, symName: __ZNSt3__124__libcpp_operator_deleteB8ne200100IJP15TriangleIndicesmSt11align_val_tEEEvDpT_, symObjAddr: 0x31544, symBinAddr: 0x10003460C, symSize: 0x34 }
  - { offset: 0x19C09, size: 0x8, addend: 0x0, symName: __ZNSt3__124__libcpp_operator_deleteB8ne200100IJP15TriangleIndicesmEEEvDpT_, symObjAddr: 0x31578, symBinAddr: 0x100034640, symSize: 0x2C }
  - { offset: 0x19C4F, size: 0x8, addend: 0x0, symName: __ZNSt3__112__to_addressB8ne200100IiEEPT_S2_, symObjAddr: 0x31854, symBinAddr: 0x10003491C, symSize: 0x14 }
  - { offset: 0x19C85, size: 0x8, addend: 0x0, symName: __ZNSt3__119__libcpp_deallocateB8ne200100IiEEvPNS_15__type_identityIT_E4typeENS_15__element_countEm, symObjAddr: 0x318B0, symBinAddr: 0x100034978, symSize: 0x6C }
  - { offset: 0x19CFD, size: 0x8, addend: 0x0, symName: __ZNSt3__124__libcpp_operator_deleteB8ne200100IJPimSt11align_val_tEEEvDpT_, symObjAddr: 0x3191C, symBinAddr: 0x1000349E4, symSize: 0x34 }
  - { offset: 0x19D57, size: 0x8, addend: 0x0, symName: __ZNSt3__124__libcpp_operator_deleteB8ne200100IJPimEEEvDpT_, symObjAddr: 0x31950, symBinAddr: 0x100034A18, symSize: 0x2C }
  - { offset: 0x19D9D, size: 0x8, addend: 0x0, symName: __ZNSt3__112__to_addressB8ne200100INS_6vectorIdNS_9allocatorIdEEEEEEPT_S6_, symObjAddr: 0x31C2C, symBinAddr: 0x100034CF4, symSize: 0x14 }
  - { offset: 0x19DD2, size: 0x8, addend: 0x0, symName: __ZNSt3__112__to_addressB8ne200100IdEEPT_S2_, symObjAddr: 0x31F44, symBinAddr: 0x10003500C, symSize: 0x14 }
  - { offset: 0x19E08, size: 0x8, addend: 0x0, symName: __ZNSt3__119__libcpp_deallocateB8ne200100IdEEvPNS_15__type_identityIT_E4typeENS_15__element_countEm, symObjAddr: 0x31FA0, symBinAddr: 0x100035068, symSize: 0x6C }
  - { offset: 0x19E80, size: 0x8, addend: 0x0, symName: __ZNSt3__124__libcpp_operator_deleteB8ne200100IJPdmSt11align_val_tEEEvDpT_, symObjAddr: 0x3200C, symBinAddr: 0x1000350D4, symSize: 0x34 }
  - { offset: 0x19EDA, size: 0x8, addend: 0x0, symName: __ZNSt3__124__libcpp_operator_deleteB8ne200100IJPdmEEEvDpT_, symObjAddr: 0x32040, symBinAddr: 0x100035108, symSize: 0x2C }
  - { offset: 0x19F21, size: 0x8, addend: 0x0, symName: __ZNSt3__119__libcpp_deallocateB8ne200100INS_6vectorIdNS_9allocatorIdEEEEEEvPNS_15__type_identityIT_E4typeENS_15__element_countEm, symObjAddr: 0x320A0, symBinAddr: 0x100035168, symSize: 0x70 }
  - { offset: 0x19F99, size: 0x8, addend: 0x0, symName: __ZNSt3__124__libcpp_operator_deleteB8ne200100IJPNS_6vectorIdNS_9allocatorIdEEEEmSt11align_val_tEEEvDpT_, symObjAddr: 0x32110, symBinAddr: 0x1000351D8, symSize: 0x34 }
  - { offset: 0x19FF3, size: 0x8, addend: 0x0, symName: __ZNSt3__124__libcpp_operator_deleteB8ne200100IJPNS_6vectorIdNS_9allocatorIdEEEEmEEEvDpT_, symObjAddr: 0x32144, symBinAddr: 0x10003520C, symSize: 0x2C }
  - { offset: 0x1B1A0, size: 0x8, addend: 0x0, symName: __ZNSt3__13minB8ne200100IiEERKT_S3_S3_, symObjAddr: 0x327A0, symBinAddr: 0x100035868, symSize: 0x2C }
  - { offset: 0x1B1E3, size: 0x8, addend: 0x0, symName: __ZNSt3__13maxB8ne200100IiEERKT_S3_S3_, symObjAddr: 0x327CC, symBinAddr: 0x100035894, symSize: 0x2C }
  - { offset: 0x1B378, size: 0x8, addend: 0x0, symName: __ZNSt3__114__construct_atB8ne200100INS_11__list_nodeIP7NodeBVHPvEEJRPNS_16__list_node_baseIS3_S4_EES9_EPS5_EEPT_SC_DpOT0_, symObjAddr: 0x32BAC, symBinAddr: 0x100035C74, symSize: 0x44 }
  - { offset: 0x1B3DE, size: 0x8, addend: 0x0, symName: __ZNSt3__117__libcpp_allocateB8ne200100INS_11__list_nodeIP7NodeBVHPvEEEEPT_NS_15__element_countEm, symObjAddr: 0x32D88, symBinAddr: 0x100035E50, symSize: 0x70 }
  - { offset: 0x1B44C, size: 0x8, addend: 0x0, symName: __ZNSt3__119__libcpp_deallocateB8ne200100INS_11__list_nodeIP7NodeBVHPvEEEEvPNS_15__type_identityIT_E4typeENS_15__element_countEm, symObjAddr: 0x32FB4, symBinAddr: 0x10003607C, symSize: 0x70 }
  - { offset: 0x1B4C4, size: 0x8, addend: 0x0, symName: __ZNSt3__124__libcpp_operator_deleteB8ne200100IJPNS_11__list_nodeIP7NodeBVHPvEEmSt11align_val_tEEEvDpT_, symObjAddr: 0x33024, symBinAddr: 0x1000360EC, symSize: 0x34 }
  - { offset: 0x1B51E, size: 0x8, addend: 0x0, symName: __ZNSt3__124__libcpp_operator_deleteB8ne200100IJPNS_11__list_nodeIP7NodeBVHPvEEmEEEvDpT_, symObjAddr: 0x33058, symBinAddr: 0x100036120, symSize: 0x2C }
  - { offset: 0x1B565, size: 0x8, addend: 0x0, symName: __ZNSt3__112__destroy_atB8ne200100INS_11__list_nodeIP7NodeBVHPvEETnNS_9enable_ifIXntsr8is_arrayIT_EE5valueEiE4typeELi0EEEvPS7_, symObjAddr: 0x331CC, symBinAddr: 0x100036294, symSize: 0x24 }
  - { offset: 0x1B59D, size: 0x8, addend: 0x0, symName: __ZNSt3__112__destroy_atB8ne200100IP7NodeBVHTnNS_9enable_ifIXntsr8is_arrayIT_EE5valueEiE4typeELi0EEEvPS4_, symObjAddr: 0x331F0, symBinAddr: 0x1000362B8, symSize: 0x10 }
  - { offset: 0x1B5D4, size: 0x8, addend: 0x0, symName: __ZNSt3__13minB8ne200100IiNS_6__lessIvvEEEERKT_S5_S5_T0_, symObjAddr: 0x332A0, symBinAddr: 0x100036368, symSize: 0x54 }
  - { offset: 0x1B62E, size: 0x8, addend: 0x0, symName: __ZNSt3__13maxB8ne200100IiNS_6__lessIvvEEEERKT_S5_S5_T0_, symObjAddr: 0x33324, symBinAddr: 0x1000363EC, symSize: 0x54 }
  - { offset: 0x1B688, size: 0x8, addend: 0x0, symName: __ZNSt3__122__str_find_last_not_ofB8ne200100IcmNS_11char_traitsIcEETnT0_Lm18446744073709551615EEES3_PKT_S3_S6_S3_S3_, symObjAddr: 0x3369C, symBinAddr: 0x100036764, symSize: 0xCC }
  - { offset: 0x1B73D, size: 0x8, addend: 0x0, symName: __ZNSt3__118__constexpr_memchrB8ne200100IKccEEPT_S3_T0_m, symObjAddr: 0x3384C, symBinAddr: 0x100036914, symSize: 0x40 }
  - { offset: 0x1B7B3, size: 0x8, addend: 0x0, symName: __ZNSt3__112__to_addressB8ne200100IKcEEPT_S3_, symObjAddr: 0x3388C, symBinAddr: 0x100036954, symSize: 0x14 }
  - { offset: 0x1B81B, size: 0x8, addend: 0x0, symName: __ZNSt3__119__allocate_at_leastB8ne200100INS_9allocatorI6VectorEEEENS_19__allocation_resultINS_16allocator_traitsIT_E7pointerEEERS6_m, symObjAddr: 0x34020, symBinAddr: 0x1000370E8, symSize: 0x40 }
  - { offset: 0x1B85E, size: 0x8, addend: 0x0, symName: __ZNSt3__117__libcpp_allocateB8ne200100I6VectorEEPT_NS_15__element_countEm, symObjAddr: 0x340B0, symBinAddr: 0x100037178, symSize: 0x70 }
  - { offset: 0x1B8CC, size: 0x8, addend: 0x0, symName: __ZNSt3__134__uninitialized_allocator_relocateB8ne200100INS_9allocatorI6VectorEEPS2_EEvRT_T0_S7_S7_, symObjAddr: 0x34120, symBinAddr: 0x1000371E8, symSize: 0x60 }
  - { offset: 0x1B935, size: 0x8, addend: 0x0, symName: __ZNSt3__14swapB8ne200100IP6VectorEENS_9enable_ifIXaasr21is_move_constructibleIT_EE5valuesr18is_move_assignableIS4_EE5valueEvE4typeERS4_S7_, symObjAddr: 0x34180, symBinAddr: 0x100037248, symSize: 0x3C }
  - { offset: 0x1B986, size: 0x8, addend: 0x0, symName: __ZNSt3__119__allocate_at_leastB8ne200100INS_9allocatorI15TriangleIndicesEEEENS_19__allocation_resultINS_16allocator_traitsIT_E7pointerEEERS6_m, symObjAddr: 0x34A84, symBinAddr: 0x100037B4C, symSize: 0x40 }
  - { offset: 0x1B9C9, size: 0x8, addend: 0x0, symName: __ZNSt3__117__libcpp_allocateB8ne200100I15TriangleIndicesEEPT_NS_15__element_countEm, symObjAddr: 0x34B14, symBinAddr: 0x100037BDC, symSize: 0x70 }
  - { offset: 0x1BA37, size: 0x8, addend: 0x0, symName: __ZNSt3__134__uninitialized_allocator_relocateB8ne200100INS_9allocatorI15TriangleIndicesEEPS2_EEvRT_T0_S7_S7_, symObjAddr: 0x34B84, symBinAddr: 0x100037C4C, symSize: 0x60 }
  - { offset: 0x1BAA0, size: 0x8, addend: 0x0, symName: __ZNSt3__14swapB8ne200100IP15TriangleIndicesEENS_9enable_ifIXaasr21is_move_constructibleIT_EE5valuesr18is_move_assignableIS4_EE5valueEvE4typeERS4_S7_, symObjAddr: 0x34BE4, symBinAddr: 0x100037CAC, symSize: 0x3C }
  - { offset: 0x1BAF1, size: 0x8, addend: 0x0, symName: __ZNSt3__119__allocate_at_leastB8ne200100INS_9allocatorIiEEEENS_19__allocation_resultINS_16allocator_traitsIT_E7pointerEEERS5_m, symObjAddr: 0x354D4, symBinAddr: 0x10003859C, symSize: 0x40 }
  - { offset: 0x1BB34, size: 0x8, addend: 0x0, symName: __ZNSt3__117__libcpp_allocateB8ne200100IiEEPT_NS_15__element_countEm, symObjAddr: 0x35564, symBinAddr: 0x10003862C, symSize: 0x6C }
  - { offset: 0x1BBA2, size: 0x8, addend: 0x0, symName: __ZNSt3__134__uninitialized_allocator_relocateB8ne200100INS_9allocatorIiEEPiEEvRT_T0_S6_S6_, symObjAddr: 0x355D0, symBinAddr: 0x100038698, symSize: 0x60 }
  - { offset: 0x1BC0B, size: 0x8, addend: 0x0, symName: __ZNSt3__14swapB8ne200100IPiEENS_9enable_ifIXaasr21is_move_constructibleIT_EE5valuesr18is_move_assignableIS3_EE5valueEvE4typeERS3_S6_, symObjAddr: 0x35630, symBinAddr: 0x1000386F8, symSize: 0x3C }
  - { offset: 0x1BC5C, size: 0x8, addend: 0x0, symName: __ZNSt3__122__make_exception_guardB8ne200100INS_6vectorIdNS_9allocatorIdEEE16__destroy_vectorEEENS_28__exception_guard_exceptionsIT_EES7_, symObjAddr: 0x358E0, symBinAddr: 0x1000389A8, symSize: 0x40 }
  - { offset: 0x1BC91, size: 0x8, addend: 0x0, symName: __ZNSt3__119__allocate_at_leastB8ne200100INS_9allocatorIdEEEENS_19__allocation_resultINS_16allocator_traitsIT_E7pointerEEERS5_m, symObjAddr: 0x35BB4, symBinAddr: 0x100038C7C, symSize: 0x40 }
  - { offset: 0x1BCD4, size: 0x8, addend: 0x0, symName: __ZNSt3__117__libcpp_allocateB8ne200100IdEEPT_NS_15__element_countEm, symObjAddr: 0x35C90, symBinAddr: 0x100038D58, symSize: 0x6C }
  - { offset: 0x1BD41, size: 0x8, addend: 0x0, symName: __ZNSt3__130__uninitialized_allocator_copyB8ne200100INS_9allocatorIdEEPdS3_S3_EET2_RT_T0_T1_S4_, symObjAddr: 0x36344, symBinAddr: 0x10003940C, symSize: 0x80 }
  - { offset: 0x1BDDE, size: 0x8, addend: 0x0, symName: __ZNSt3__114__unwrap_rangeB8ne200100IPdS1_EENS_4pairIT0_S3_EET_S5_, symObjAddr: 0x363C4, symBinAddr: 0x10003948C, symSize: 0x60 }
  - { offset: 0x1BE2A, size: 0x8, addend: 0x0, symName: __ZNSt3__135__uninitialized_allocator_copy_implB8ne200100INS_9allocatorIdEEddTnNS_9enable_ifIXaaaaaasr31is_trivially_copy_constructibleIT0_EE5valuesr28is_trivially_copy_assignableIS4_EE5valuesr7is_sameIu14__remove_constIS4_Eu14__remove_constIT1_EEE5valuesr38__allocator_has_trivial_copy_constructIT_S4_EE5valueEiE4typeELi0EEEPS6_RS8_PS4_SD_SB_, symObjAddr: 0x36424, symBinAddr: 0x1000394EC, symSize: 0x38 }
  - { offset: 0x1BEA3, size: 0x8, addend: 0x0, symName: __ZNSt3__113__unwrap_iterB8ne200100IPdNS_18__unwrap_iter_implIS1_Lb1EEETnNS_9enable_ifIXsr21is_copy_constructibleIT_EE5valueEiE4typeELi0EEEDTclsrT0_8__unwrapclsr3stdE7declvalIS5_EEEES5_, symObjAddr: 0x3645C, symBinAddr: 0x100039524, symSize: 0x24 }
  - { offset: 0x1BEE7, size: 0x8, addend: 0x0, symName: __ZNSt3__113__rewrap_iterB8ne200100IPdS1_NS_18__unwrap_iter_implIS1_Lb1EEEEET_S4_T0_, symObjAddr: 0x36480, symBinAddr: 0x100039548, symSize: 0x3C }
  - { offset: 0x1BF3C, size: 0x8, addend: 0x0, symName: __ZNSt3__19make_pairB8ne200100IPdS1_EENS_4pairINS_18__unwrap_referenceIu7__decayIT_EE4typeENS3_Iu7__decayIT0_EE4typeEEEOS4_OS8_, symObjAddr: 0x364BC, symBinAddr: 0x100039584, symSize: 0x38 }
  - { offset: 0x1C0A8, size: 0x8, addend: 0x0, symName: __ZNSt3__14copyB8ne200100IPdS1_EET0_T_S3_S2_, symObjAddr: 0x36564, symBinAddr: 0x10003962C, symSize: 0x40 }
  - { offset: 0x1C102, size: 0x8, addend: 0x0, symName: __ZNSt3__16__copyB8ne200100IPdS1_S1_EENS_4pairIT_T1_EES3_T0_S4_, symObjAddr: 0x365A4, symBinAddr: 0x10003966C, symSize: 0x44 }
  - { offset: 0x1C165, size: 0x8, addend: 0x0, symName: __ZNSt3__124__copy_move_unwrap_itersB8ne200100INS_11__copy_implEPdS2_S2_TnNS_9enable_ifIXsr12__can_rewrapIT0_T2_EE5valueEiE4typeELi0EEENS_4pairIS4_S5_EES4_T1_S5_, symObjAddr: 0x365E8, symBinAddr: 0x1000396B0, symSize: 0xB4 }
  - { offset: 0x1C1F3, size: 0x8, addend: 0x0, symName: __ZNSt3__114__rewrap_rangeB8ne200100IPdS1_EET_S2_T0_, symObjAddr: 0x366E4, symBinAddr: 0x1000397AC, symSize: 0x2C }
  - { offset: 0x1C23F, size: 0x8, addend: 0x0, symName: __ZNSt3__119__copy_trivial_implB8ne200100IddEENS_4pairIPT_PT0_EES3_S3_S5_, symObjAddr: 0x36710, symBinAddr: 0x1000397D8, symSize: 0x80 }
  - { offset: 0x1C2A7, size: 0x8, addend: 0x0, symName: __ZNSt3__119__constexpr_memmoveB8ne200100IddTnNS_9enable_ifIXsr23__is_always_bitcastableIT0_T_EE5valueEiE4typeELi0EEEPS3_S6_PS2_NS_15__element_countE, symObjAddr: 0x36790, symBinAddr: 0x100039858, symSize: 0x60 }
  - { offset: 0x1C315, size: 0x8, addend: 0x0, symName: __ZNSt3__19make_pairB8ne200100IRPdS1_EENS_4pairINS_18__unwrap_referenceIu7__decayIT_EE4typeENS4_Iu7__decayIT0_EE4typeEEEOS5_OS9_, symObjAddr: 0x367F0, symBinAddr: 0x1000398B8, symSize: 0x38 }
  - { offset: 0x1C3AC, size: 0x8, addend: 0x0, symName: __ZNSt3__119__allocate_at_leastB8ne200100INS_9allocatorINS_6vectorIdNS1_IdEEEEEEEENS_19__allocation_resultINS_16allocator_traitsIT_E7pointerEEERS8_m, symObjAddr: 0x36CB8, symBinAddr: 0x100039D80, symSize: 0x40 }
  - { offset: 0x1C3EF, size: 0x8, addend: 0x0, symName: __ZNSt3__117__libcpp_allocateB8ne200100INS_6vectorIdNS_9allocatorIdEEEEEEPT_NS_15__element_countEm, symObjAddr: 0x36D48, symBinAddr: 0x100039E10, symSize: 0x70 }
  - { offset: 0x1C45D, size: 0x8, addend: 0x0, symName: __ZNSt3__134__uninitialized_allocator_relocateB8ne200100INS_9allocatorINS_6vectorIdNS1_IdEEEEEEPS4_EEvRT_T0_S9_S9_, symObjAddr: 0x36DB8, symBinAddr: 0x100039E80, symSize: 0x60 }
  - { offset: 0x1C4C6, size: 0x8, addend: 0x0, symName: __ZNSt3__14swapB8ne200100IPNS_6vectorIdNS_9allocatorIdEEEEEENS_9enable_ifIXaasr21is_move_constructibleIT_EE5valuesr18is_move_assignableIS7_EE5valueEvE4typeERS7_SA_, symObjAddr: 0x36E18, symBinAddr: 0x100039EE0, symSize: 0x3C }
  - { offset: 0x1C517, size: 0x8, addend: 0x0, symName: __ZNSt3__1neB8ne200100IP6VectorEEbRKNS_11__wrap_iterIT_EES7_, symObjAddr: 0x37058, symBinAddr: 0x10003A120, symSize: 0x30 }
  - { offset: 0x1C55A, size: 0x8, addend: 0x0, symName: __ZNSt3__1eqB8ne200100IP6VectorEEbRKNS_11__wrap_iterIT_EES7_, symObjAddr: 0x37158, symBinAddr: 0x10003A220, symSize: 0x44 }
  - { offset: 0x1C59D, size: 0x8, addend: 0x0, symName: __ZNSt3__14swapB8ne200100I15TriangleIndicesEENS_9enable_ifIXaasr21is_move_constructibleIT_EE5valuesr18is_move_assignableIS3_EE5valueEvE4typeERS3_S6_, symObjAddr: 0x37804, symBinAddr: 0x10003A8CC, symSize: 0x58 }
  - { offset: 0x1C5EE, size: 0x8, addend: 0x0, symName: __ZNSt3__115allocate_sharedB8ne200100I12TriangleMeshNS_9allocatorIS1_EEJRS1_ETnNS_9enable_ifIXntsr8is_arrayIT_EE5valueEiE4typeELi0EEENS_10shared_ptrIS6_EERKT0_DpOT1_, symObjAddr: 0x3789C, symBinAddr: 0x10003A964, symSize: 0xC8 }
  - { offset: 0x1C9A6, size: 0x8, addend: 0x0, symName: __ZNSt3__117__libcpp_allocateB8ne200100INS_20__shared_ptr_emplaceI12TriangleMeshNS_9allocatorIS2_EEEEEEPT_NS_15__element_countEm, symObjAddr: 0x37C94, symBinAddr: 0x10003AD5C, symSize: 0x70 }
  - { offset: 0x1CADA, size: 0x8, addend: 0x0, symName: __ZNSt3__122__make_exception_guardB8ne200100INS_6vectorINS1_IdNS_9allocatorIdEEEENS2_IS4_EEE16__destroy_vectorEEENS_28__exception_guard_exceptionsIT_EES9_, symObjAddr: 0x38498, symBinAddr: 0x10003B560, symSize: 0x40 }
  - { offset: 0x1CB0F, size: 0x8, addend: 0x0, symName: __ZNSt3__130__uninitialized_allocator_copyB8ne200100INS_9allocatorINS_6vectorIdNS1_IdEEEEEEPS4_S6_S6_EET2_RT_T0_T1_S7_, symObjAddr: 0x38694, symBinAddr: 0x10003B75C, symSize: 0x80 }
  - { offset: 0x1CBAC, size: 0x8, addend: 0x0, symName: __ZNSt3__114__unwrap_rangeB8ne200100IPNS_6vectorIdNS_9allocatorIdEEEES5_EENS_4pairIT0_S7_EET_S9_, symObjAddr: 0x38714, symBinAddr: 0x10003B7DC, symSize: 0x60 }
  - { offset: 0x1CBF8, size: 0x8, addend: 0x0, symName: __ZNSt3__135__uninitialized_allocator_copy_implB8ne200100INS_9allocatorINS_6vectorIdNS1_IdEEEEEEPS4_S6_S6_EET2_RT_T0_T1_S7_, symObjAddr: 0x38774, symBinAddr: 0x10003B83C, symSize: 0xF0 }
  - { offset: 0x1CC96, size: 0x8, addend: 0x0, symName: __ZNSt3__113__unwrap_iterB8ne200100IPNS_6vectorIdNS_9allocatorIdEEEENS_18__unwrap_iter_implIS5_Lb1EEETnNS_9enable_ifIXsr21is_copy_constructibleIT_EE5valueEiE4typeELi0EEEDTclsrT0_8__unwrapclsr3stdE7declvalIS9_EEEES9_, symObjAddr: 0x38864, symBinAddr: 0x10003B92C, symSize: 0x24 }
  - { offset: 0x1CCDA, size: 0x8, addend: 0x0, symName: __ZNSt3__113__rewrap_iterB8ne200100IPNS_6vectorIdNS_9allocatorIdEEEES5_NS_18__unwrap_iter_implIS5_Lb1EEEEET_S8_T0_, symObjAddr: 0x38888, symBinAddr: 0x10003B950, symSize: 0x3C }
  - { offset: 0x1CD2F, size: 0x8, addend: 0x0, symName: __ZNSt3__19make_pairB8ne200100IPNS_6vectorIdNS_9allocatorIdEEEES5_EENS_4pairINS_18__unwrap_referenceIu7__decayIT_EE4typeENS7_Iu7__decayIT0_EE4typeEEEOS8_OSC_, symObjAddr: 0x388C4, symBinAddr: 0x10003B98C, symSize: 0x38 }
  - { offset: 0x1CE68, size: 0x8, addend: 0x0, symName: __ZNSt3__122__make_exception_guardB8ne200100INS_29_AllocatorDestroyRangeReverseINS_9allocatorINS_6vectorIdNS2_IdEEEEEEPS5_EEEENS_28__exception_guard_exceptionsIT_EESA_, symObjAddr: 0x3896C, symBinAddr: 0x10003BA34, symSize: 0x4C }
  - { offset: 0x1CE9F, size: 0x8, addend: 0x0, symName: __ZNSt3__119__allocator_destroyB8ne200100INS_9allocatorINS_6vectorIdNS1_IdEEEEEENS_16reverse_iteratorIPS4_EES8_EEvRT_T0_T1_, symObjAddr: 0x38BFC, symBinAddr: 0x10003BCC4, symSize: 0x70 }
  - { offset: 0x1CF02, size: 0x8, addend: 0x0, symName: __ZNSt3__1neB8ne200100IPNS_6vectorIdNS_9allocatorIdEEEES5_EEbRKNS_16reverse_iteratorIT_EERKNS6_IT0_EE, symObjAddr: 0x38CA0, symBinAddr: 0x10003BD68, symSize: 0x44 }
  - { offset: 0x1CF4E, size: 0x8, addend: 0x0, symName: __ZNSt3__112__to_addressB8ne200100INS_16reverse_iteratorIPNS_6vectorIdNS_9allocatorIdEEEEEETnNS_9enable_ifIXsr4_AndINS_8is_classIT_EENS_15_IsFancyPointerISA_EEEE5valueEiE4typeELi0EEEu7__decayIDTclsr19__to_address_helperISA_EE6__callclsr3stdE7declvalIRKSA_EEEEESH_, symObjAddr: 0x38CE4, symBinAddr: 0x10003BDAC, symSize: 0x24 }
  - { offset: 0x1CFFB, size: 0x8, addend: 0x0, symName: __ZNSt3__122__make_exception_guardB8ne200100INS_6vectorIiNS_9allocatorIiEEE16__destroy_vectorEEENS_28__exception_guard_exceptionsIT_EES7_, symObjAddr: 0x38FE8, symBinAddr: 0x10003C0B0, symSize: 0x40 }
  - { offset: 0x1D030, size: 0x8, addend: 0x0, symName: __ZNSt3__130__uninitialized_allocator_copyB8ne200100INS_9allocatorIiEEPiS3_S3_EET2_RT_T0_T1_S4_, symObjAddr: 0x391DC, symBinAddr: 0x10003C2A4, symSize: 0x80 }
  - { offset: 0x1D0CD, size: 0x8, addend: 0x0, symName: __ZNSt3__114__unwrap_rangeB8ne200100IPiS1_EENS_4pairIT0_S3_EET_S5_, symObjAddr: 0x3925C, symBinAddr: 0x10003C324, symSize: 0x60 }
  - { offset: 0x1D119, size: 0x8, addend: 0x0, symName: __ZNSt3__135__uninitialized_allocator_copy_implB8ne200100INS_9allocatorIiEEiiTnNS_9enable_ifIXaaaaaasr31is_trivially_copy_constructibleIT0_EE5valuesr28is_trivially_copy_assignableIS4_EE5valuesr7is_sameIu14__remove_constIS4_Eu14__remove_constIT1_EEE5valuesr38__allocator_has_trivial_copy_constructIT_S4_EE5valueEiE4typeELi0EEEPS6_RS8_PS4_SD_SB_, symObjAddr: 0x392BC, symBinAddr: 0x10003C384, symSize: 0x38 }
  - { offset: 0x1D192, size: 0x8, addend: 0x0, symName: __ZNSt3__113__unwrap_iterB8ne200100IPiNS_18__unwrap_iter_implIS1_Lb1EEETnNS_9enable_ifIXsr21is_copy_constructibleIT_EE5valueEiE4typeELi0EEEDTclsrT0_8__unwrapclsr3stdE7declvalIS5_EEEES5_, symObjAddr: 0x392F4, symBinAddr: 0x10003C3BC, symSize: 0x24 }
  - { offset: 0x1D1D6, size: 0x8, addend: 0x0, symName: __ZNSt3__113__rewrap_iterB8ne200100IPiS1_NS_18__unwrap_iter_implIS1_Lb1EEEEET_S4_T0_, symObjAddr: 0x39318, symBinAddr: 0x10003C3E0, symSize: 0x3C }
  - { offset: 0x1D22B, size: 0x8, addend: 0x0, symName: __ZNSt3__19make_pairB8ne200100IPiS1_EENS_4pairINS_18__unwrap_referenceIu7__decayIT_EE4typeENS3_Iu7__decayIT0_EE4typeEEEOS4_OS8_, symObjAddr: 0x39354, symBinAddr: 0x10003C41C, symSize: 0x38 }
  - { offset: 0x1D397, size: 0x8, addend: 0x0, symName: __ZNSt3__14copyB8ne200100IPiS1_EET0_T_S3_S2_, symObjAddr: 0x393FC, symBinAddr: 0x10003C4C4, symSize: 0x40 }
  - { offset: 0x1D3F1, size: 0x8, addend: 0x0, symName: __ZNSt3__16__copyB8ne200100IPiS1_S1_EENS_4pairIT_T1_EES3_T0_S4_, symObjAddr: 0x3943C, symBinAddr: 0x10003C504, symSize: 0x44 }
  - { offset: 0x1D454, size: 0x8, addend: 0x0, symName: __ZNSt3__124__copy_move_unwrap_itersB8ne200100INS_11__copy_implEPiS2_S2_TnNS_9enable_ifIXsr12__can_rewrapIT0_T2_EE5valueEiE4typeELi0EEENS_4pairIS4_S5_EES4_T1_S5_, symObjAddr: 0x39480, symBinAddr: 0x10003C548, symSize: 0xB4 }
  - { offset: 0x1D4E2, size: 0x8, addend: 0x0, symName: __ZNSt3__114__rewrap_rangeB8ne200100IPiS1_EET_S2_T0_, symObjAddr: 0x3957C, symBinAddr: 0x10003C644, symSize: 0x2C }
  - { offset: 0x1D52E, size: 0x8, addend: 0x0, symName: __ZNSt3__119__copy_trivial_implB8ne200100IiiEENS_4pairIPT_PT0_EES3_S3_S5_, symObjAddr: 0x395A8, symBinAddr: 0x10003C670, symSize: 0x80 }
  - { offset: 0x1D596, size: 0x8, addend: 0x0, symName: __ZNSt3__119__constexpr_memmoveB8ne200100IiiTnNS_9enable_ifIXsr23__is_always_bitcastableIT0_T_EE5valueEiE4typeELi0EEEPS3_S6_PS2_NS_15__element_countE, symObjAddr: 0x39628, symBinAddr: 0x10003C6F0, symSize: 0x60 }
  - { offset: 0x1D604, size: 0x8, addend: 0x0, symName: __ZNSt3__19make_pairB8ne200100IRPiS1_EENS_4pairINS_18__unwrap_referenceIu7__decayIT_EE4typeENS4_Iu7__decayIT0_EE4typeEEEOS5_OS9_, symObjAddr: 0x39688, symBinAddr: 0x10003C750, symSize: 0x38 }
  - { offset: 0x1D69B, size: 0x8, addend: 0x0, symName: __ZNSt3__122__make_exception_guardB8ne200100INS_6vectorI15TriangleIndicesNS_9allocatorIS2_EEE16__destroy_vectorEEENS_28__exception_guard_exceptionsIT_EES8_, symObjAddr: 0x39924, symBinAddr: 0x10003C9EC, symSize: 0x40 }
  - { offset: 0x1D6D0, size: 0x8, addend: 0x0, symName: __ZNSt3__130__uninitialized_allocator_copyB8ne200100INS_9allocatorI15TriangleIndicesEEPS2_S4_S4_EET2_RT_T0_T1_S5_, symObjAddr: 0x39B20, symBinAddr: 0x10003CBE8, symSize: 0x80 }
  - { offset: 0x1D76D, size: 0x8, addend: 0x0, symName: __ZNSt3__114__unwrap_rangeB8ne200100IP15TriangleIndicesS2_EENS_4pairIT0_S4_EET_S6_, symObjAddr: 0x39BA0, symBinAddr: 0x10003CC68, symSize: 0x60 }
  - { offset: 0x1D7B9, size: 0x8, addend: 0x0, symName: __ZNSt3__135__uninitialized_allocator_copy_implB8ne200100INS_9allocatorI15TriangleIndicesEES2_S2_TnNS_9enable_ifIXaaaaaasr31is_trivially_copy_constructibleIT0_EE5valuesr28is_trivially_copy_assignableIS5_EE5valuesr7is_sameIu14__remove_constIS5_Eu14__remove_constIT1_EEE5valuesr38__allocator_has_trivial_copy_constructIT_S5_EE5valueEiE4typeELi0EEEPS7_RS9_PS5_SE_SC_, symObjAddr: 0x39C00, symBinAddr: 0x10003CCC8, symSize: 0x38 }
  - { offset: 0x1D832, size: 0x8, addend: 0x0, symName: __ZNSt3__113__unwrap_iterB8ne200100IP15TriangleIndicesNS_18__unwrap_iter_implIS2_Lb1EEETnNS_9enable_ifIXsr21is_copy_constructibleIT_EE5valueEiE4typeELi0EEEDTclsrT0_8__unwrapclsr3stdE7declvalIS6_EEEES6_, symObjAddr: 0x39C38, symBinAddr: 0x10003CD00, symSize: 0x24 }
  - { offset: 0x1D876, size: 0x8, addend: 0x0, symName: __ZNSt3__113__rewrap_iterB8ne200100IP15TriangleIndicesS2_NS_18__unwrap_iter_implIS2_Lb1EEEEET_S5_T0_, symObjAddr: 0x39C5C, symBinAddr: 0x10003CD24, symSize: 0x3C }
  - { offset: 0x1D8CB, size: 0x8, addend: 0x0, symName: __ZNSt3__19make_pairB8ne200100IP15TriangleIndicesS2_EENS_4pairINS_18__unwrap_referenceIu7__decayIT_EE4typeENS4_Iu7__decayIT0_EE4typeEEEOS5_OS9_, symObjAddr: 0x39C98, symBinAddr: 0x10003CD60, symSize: 0x38 }
  - { offset: 0x1DA37, size: 0x8, addend: 0x0, symName: __ZNSt3__14copyB8ne200100IP15TriangleIndicesS2_EET0_T_S4_S3_, symObjAddr: 0x39D40, symBinAddr: 0x10003CE08, symSize: 0x40 }
  - { offset: 0x1DA91, size: 0x8, addend: 0x0, symName: __ZNSt3__16__copyB8ne200100IP15TriangleIndicesS2_S2_EENS_4pairIT_T1_EES4_T0_S5_, symObjAddr: 0x39D80, symBinAddr: 0x10003CE48, symSize: 0x44 }
  - { offset: 0x1DAF4, size: 0x8, addend: 0x0, symName: __ZNSt3__124__copy_move_unwrap_itersB8ne200100INS_11__copy_implEP15TriangleIndicesS3_S3_TnNS_9enable_ifIXsr12__can_rewrapIT0_T2_EE5valueEiE4typeELi0EEENS_4pairIS5_S6_EES5_T1_S6_, symObjAddr: 0x39DC4, symBinAddr: 0x10003CE8C, symSize: 0xB4 }
  - { offset: 0x1DB82, size: 0x8, addend: 0x0, symName: __ZNSt3__114__rewrap_rangeB8ne200100IP15TriangleIndicesS2_EET_S3_T0_, symObjAddr: 0x39EC0, symBinAddr: 0x10003CF88, symSize: 0x2C }
  - { offset: 0x1DBCE, size: 0x8, addend: 0x0, symName: __ZNSt3__119__copy_trivial_implB8ne200100I15TriangleIndicesS1_EENS_4pairIPT_PT0_EES4_S4_S6_, symObjAddr: 0x39EEC, symBinAddr: 0x10003CFB4, symSize: 0x88 }
  - { offset: 0x1DC36, size: 0x8, addend: 0x0, symName: __ZNSt3__119__constexpr_memmoveB8ne200100I15TriangleIndicesS1_TnNS_9enable_ifIXsr23__is_always_bitcastableIT0_T_EE5valueEiE4typeELi0EEEPS4_S7_PS3_NS_15__element_countE, symObjAddr: 0x39F74, symBinAddr: 0x10003D03C, symSize: 0x64 }
  - { offset: 0x1DCA4, size: 0x8, addend: 0x0, symName: __ZNSt3__19make_pairB8ne200100IRP15TriangleIndicesS2_EENS_4pairINS_18__unwrap_referenceIu7__decayIT_EE4typeENS5_Iu7__decayIT0_EE4typeEEEOS6_OSA_, symObjAddr: 0x39FD8, symBinAddr: 0x10003D0A0, symSize: 0x38 }
  - { offset: 0x1DD3B, size: 0x8, addend: 0x0, symName: __ZNSt3__122__make_exception_guardB8ne200100INS_6vectorI6VectorNS_9allocatorIS2_EEE16__destroy_vectorEEENS_28__exception_guard_exceptionsIT_EES8_, symObjAddr: 0x3A27C, symBinAddr: 0x10003D344, symSize: 0x40 }
  - { offset: 0x1DD70, size: 0x8, addend: 0x0, symName: __ZNSt3__130__uninitialized_allocator_copyB8ne200100INS_9allocatorI6VectorEEPS2_S4_S4_EET2_RT_T0_T1_S5_, symObjAddr: 0x3A478, symBinAddr: 0x10003D540, symSize: 0x80 }
  - { offset: 0x1DE0D, size: 0x8, addend: 0x0, symName: __ZNSt3__114__unwrap_rangeB8ne200100IP6VectorS2_EENS_4pairIT0_S4_EET_S6_, symObjAddr: 0x3A4F8, symBinAddr: 0x10003D5C0, symSize: 0x60 }
  - { offset: 0x1DE59, size: 0x8, addend: 0x0, symName: __ZNSt3__135__uninitialized_allocator_copy_implB8ne200100INS_9allocatorI6VectorEES2_S2_TnNS_9enable_ifIXaaaaaasr31is_trivially_copy_constructibleIT0_EE5valuesr28is_trivially_copy_assignableIS5_EE5valuesr7is_sameIu14__remove_constIS5_Eu14__remove_constIT1_EEE5valuesr38__allocator_has_trivial_copy_constructIT_S5_EE5valueEiE4typeELi0EEEPS7_RS9_PS5_SE_SC_, symObjAddr: 0x3A558, symBinAddr: 0x10003D620, symSize: 0x38 }
  - { offset: 0x1DED2, size: 0x8, addend: 0x0, symName: __ZNSt3__113__unwrap_iterB8ne200100IP6VectorNS_18__unwrap_iter_implIS2_Lb1EEETnNS_9enable_ifIXsr21is_copy_constructibleIT_EE5valueEiE4typeELi0EEEDTclsrT0_8__unwrapclsr3stdE7declvalIS6_EEEES6_, symObjAddr: 0x3A590, symBinAddr: 0x10003D658, symSize: 0x24 }
  - { offset: 0x1DF16, size: 0x8, addend: 0x0, symName: __ZNSt3__113__rewrap_iterB8ne200100IP6VectorS2_NS_18__unwrap_iter_implIS2_Lb1EEEEET_S5_T0_, symObjAddr: 0x3A5B4, symBinAddr: 0x10003D67C, symSize: 0x3C }
  - { offset: 0x1DF6B, size: 0x8, addend: 0x0, symName: __ZNSt3__19make_pairB8ne200100IP6VectorS2_EENS_4pairINS_18__unwrap_referenceIu7__decayIT_EE4typeENS4_Iu7__decayIT0_EE4typeEEEOS5_OS9_, symObjAddr: 0x3A5F0, symBinAddr: 0x10003D6B8, symSize: 0x38 }
  - { offset: 0x1E0D7, size: 0x8, addend: 0x0, symName: __ZNSt3__14copyB8ne200100IP6VectorS2_EET0_T_S4_S3_, symObjAddr: 0x3A698, symBinAddr: 0x10003D760, symSize: 0x40 }
  - { offset: 0x1E131, size: 0x8, addend: 0x0, symName: __ZNSt3__16__copyB8ne200100IP6VectorS2_S2_EENS_4pairIT_T1_EES4_T0_S5_, symObjAddr: 0x3A6D8, symBinAddr: 0x10003D7A0, symSize: 0x44 }
  - { offset: 0x1E194, size: 0x8, addend: 0x0, symName: __ZNSt3__124__copy_move_unwrap_itersB8ne200100INS_11__copy_implEP6VectorS3_S3_TnNS_9enable_ifIXsr12__can_rewrapIT0_T2_EE5valueEiE4typeELi0EEENS_4pairIS5_S6_EES5_T1_S6_, symObjAddr: 0x3A71C, symBinAddr: 0x10003D7E4, symSize: 0xB4 }
  - { offset: 0x1E222, size: 0x8, addend: 0x0, symName: __ZNSt3__114__rewrap_rangeB8ne200100IP6VectorS2_EET_S3_T0_, symObjAddr: 0x3A818, symBinAddr: 0x10003D8E0, symSize: 0x2C }
  - { offset: 0x1E26E, size: 0x8, addend: 0x0, symName: __ZNSt3__119__copy_trivial_implB8ne200100I6VectorS1_EENS_4pairIPT_PT0_EES4_S4_S6_, symObjAddr: 0x3A844, symBinAddr: 0x10003D90C, symSize: 0x88 }
  - { offset: 0x1E2D6, size: 0x8, addend: 0x0, symName: __ZNSt3__119__constexpr_memmoveB8ne200100I6VectorS1_TnNS_9enable_ifIXsr23__is_always_bitcastableIT0_T_EE5valueEiE4typeELi0EEEPS4_S7_PS3_NS_15__element_countE, symObjAddr: 0x3A8CC, symBinAddr: 0x10003D994, symSize: 0x64 }
  - { offset: 0x1E344, size: 0x8, addend: 0x0, symName: __ZNSt3__19make_pairB8ne200100IRP6VectorS2_EENS_4pairINS_18__unwrap_referenceIu7__decayIT_EE4typeENS5_Iu7__decayIT0_EE4typeEEEOS6_OSA_, symObjAddr: 0x3A930, symBinAddr: 0x10003D9F8, symSize: 0x38 }
  - { offset: 0x1E40F, size: 0x8, addend: 0x0, symName: __ZNSt3__119__libcpp_deallocateB8ne200100INS_20__shared_ptr_emplaceI12TriangleMeshNS_9allocatorIS2_EEEEEEvPNS_15__type_identityIT_E4typeENS_15__element_countEm, symObjAddr: 0x3AC2C, symBinAddr: 0x10003DCF4, symSize: 0x70 }
  - { offset: 0x1E487, size: 0x8, addend: 0x0, symName: __ZNSt3__124__libcpp_operator_deleteB8ne200100IJPNS_20__shared_ptr_emplaceI12TriangleMeshNS_9allocatorIS2_EEEEmSt11align_val_tEEEvDpT_, symObjAddr: 0x3AC9C, symBinAddr: 0x10003DD64, symSize: 0x34 }
  - { offset: 0x1E4E1, size: 0x8, addend: 0x0, symName: __ZNSt3__124__libcpp_operator_deleteB8ne200100IJPNS_20__shared_ptr_emplaceI12TriangleMeshNS_9allocatorIS2_EEEEmEEEvDpT_, symObjAddr: 0x3ACD0, symBinAddr: 0x10003DD98, symSize: 0x2C }
  - { offset: 0x1FE01, size: 0x8, addend: 0x0, symName: __ZSt28__throw_bad_array_new_lengthB8ne200100v, symObjAddr: 0x1F304, symBinAddr: 0x1000223CC, symSize: 0x34 }
  - { offset: 0x1FE57, size: 0x8, addend: 0x0, symName: _background, symObjAddr: 0x10D820, symBinAddr: 0x100048668, symSize: 0x0 }
  - { offset: 0x21564, size: 0x8, addend: 0x0, symName: __ZNKSt3__16chrono15__duration_castINS0_8durationIxNS_5ratioILl1ELl1000000000EEEEENS2_IdNS3_ILl1ELl1EEEEES4_Lb1ELb0EEclB8ne200100ERKS5_, symObjAddr: 0x2542C, symBinAddr: 0x1000284F4, symSize: 0x50 }
  - { offset: 0x22076, size: 0x8, addend: 0x0, symName: _stbi_flip_vertically_on_write, symObjAddr: 0x0, symBinAddr: 0x1000030C8, symSize: 0x1C }
  - { offset: 0x2209C, size: 0x8, addend: 0x0, symName: _stbi_write_bmp_to_func, symObjAddr: 0x1C, symBinAddr: 0x1000030E4, symSize: 0xA4 }
  - { offset: 0x22122, size: 0x8, addend: 0x0, symName: __ZL27stbi__start_write_callbacksP19stbi__write_contextPFvPvS1_iES1_, symObjAddr: 0xC0, symBinAddr: 0x100003188, symSize: 0x30 }
  - { offset: 0x2216A, size: 0x8, addend: 0x0, symName: __ZL19stbi_write_bmp_coreP19stbi__write_contextiiiPKv, symObjAddr: 0xF0, symBinAddr: 0x1000031B8, symSize: 0x258 }
  - { offset: 0x221F1, size: 0x8, addend: 0x0, symName: __ZL14stbiw__outfileP19stbi__write_contextiiiiiiPviiPKcz, symObjAddr: 0x348, symBinAddr: 0x100003410, symSize: 0xD4 }
  - { offset: 0x222D3, size: 0x8, addend: 0x0, symName: __ZL14stbiw__writefvP19stbi__write_contextPKcPc, symObjAddr: 0x41C, symBinAddr: 0x1000034E4, symSize: 0x1B4 }
  - { offset: 0x22390, size: 0x8, addend: 0x0, symName: __ZL19stbiw__write_pixelsP19stbi__write_contextiiiiiPviii, symObjAddr: 0x5D0, symBinAddr: 0x100003698, symSize: 0x180 }
  - { offset: 0x2249A, size: 0x8, addend: 0x0, symName: __ZL18stbiw__write_pixelP19stbi__write_contextiiiiPh, symObjAddr: 0x750, symBinAddr: 0x100003818, symSize: 0x208 }
  - { offset: 0x2253C, size: 0x8, addend: 0x0, symName: __ZL18stbiw__write_flushP19stbi__write_context, symObjAddr: 0x958, symBinAddr: 0x100003A20, symSize: 0x5C }
  - { offset: 0x22566, size: 0x8, addend: 0x0, symName: __ZL13stbiw__write1P19stbi__write_contexth, symObjAddr: 0x9B4, symBinAddr: 0x100003A7C, symSize: 0x6C }
  - { offset: 0x2259F, size: 0x8, addend: 0x0, symName: __ZL13stbiw__write3P19stbi__write_contexthhh, symObjAddr: 0xA20, symBinAddr: 0x100003AE8, symSize: 0xBC }
  - { offset: 0x22605, size: 0x8, addend: 0x0, symName: _stbi_write_bmp, symObjAddr: 0xADC, symBinAddr: 0x100003BA4, symSize: 0xD0 }
  - { offset: 0x22699, size: 0x8, addend: 0x0, symName: __ZL22stbi__start_write_fileP19stbi__write_contextPKc, symObjAddr: 0xBAC, symBinAddr: 0x100003C74, symSize: 0x54 }
  - { offset: 0x226E5, size: 0x8, addend: 0x0, symName: __ZL20stbi__end_write_fileP19stbi__write_context, symObjAddr: 0xC00, symBinAddr: 0x100003CC8, symSize: 0x28 }
  - { offset: 0x2270F, size: 0x8, addend: 0x0, symName: __ZL12stbiw__fopenPKcS0_, symObjAddr: 0xC28, symBinAddr: 0x100003CF0, symSize: 0x34 }
  - { offset: 0x2275B, size: 0x8, addend: 0x0, symName: __ZL17stbi__stdio_writePvS_i, symObjAddr: 0xC5C, symBinAddr: 0x100003D24, symSize: 0x38 }
  - { offset: 0x227A3, size: 0x8, addend: 0x0, symName: _stbi_write_tga_to_func, symObjAddr: 0xC94, symBinAddr: 0x100003D5C, symSize: 0xA4 }
  - { offset: 0x22828, size: 0x8, addend: 0x0, symName: __ZL19stbi_write_tga_coreP19stbi__write_contextiiiPv, symObjAddr: 0xD38, symBinAddr: 0x100003E00, symSize: 0x5A0 }
  - { offset: 0x229D4, size: 0x8, addend: 0x0, symName: __ZL13stbiw__writefP19stbi__write_contextPKcz, symObjAddr: 0x12D8, symBinAddr: 0x1000043A0, symSize: 0x3C }
  - { offset: 0x22A1D, size: 0x8, addend: 0x0, symName: _stbi_write_tga, symObjAddr: 0x1314, symBinAddr: 0x1000043DC, symSize: 0xD0 }
  - { offset: 0x22AB1, size: 0x8, addend: 0x0, symName: _stbi_write_hdr_to_func, symObjAddr: 0x13E4, symBinAddr: 0x1000044AC, symSize: 0xA4 }
  - { offset: 0x22B36, size: 0x8, addend: 0x0, symName: __ZL19stbi_write_hdr_coreP19stbi__write_contextiiiPf, symObjAddr: 0x1488, symBinAddr: 0x100004550, symSize: 0x214 }
  - { offset: 0x22C03, size: 0x8, addend: 0x0, symName: __ZL25stbiw__write_hdr_scanlineP19stbi__write_contextiiPhPf, symObjAddr: 0x169C, symBinAddr: 0x100004764, symSize: 0x578 }
  - { offset: 0x22D28, size: 0x8, addend: 0x0, symName: __ZL21stbiw__linear_to_rgbePhPf, symObjAddr: 0x1C14, symBinAddr: 0x100004CDC, symSize: 0x1A8 }
  - { offset: 0x22D9C, size: 0x8, addend: 0x0, symName: __ZL22stbiw__write_dump_dataP19stbi__write_contextiPh, symObjAddr: 0x1DBC, symBinAddr: 0x100004E84, symSize: 0x98 }
  - { offset: 0x22DF3, size: 0x8, addend: 0x0, symName: __ZL21stbiw__write_run_dataP19stbi__write_contextih, symObjAddr: 0x1E54, symBinAddr: 0x100004F1C, symSize: 0xA8 }
  - { offset: 0x22E4A, size: 0x8, addend: 0x0, symName: _stbi_write_hdr, symObjAddr: 0x1F28, symBinAddr: 0x100004FF0, symSize: 0xD0 }
  - { offset: 0x22EDE, size: 0x8, addend: 0x0, symName: __ZL14stbiw__sbgrowfPPvii, symObjAddr: 0x31AC, symBinAddr: 0x100006274, symSize: 0x148 }
  - { offset: 0x22F48, size: 0x8, addend: 0x0, symName: __ZL18stbiw__zlib_flushfPhPjPi, symObjAddr: 0x32F4, symBinAddr: 0x1000063BC, symSize: 0xCC }
  - { offset: 0x22F94, size: 0x8, addend: 0x0, symName: __ZL12stbiw__zhashPh, symObjAddr: 0x33C0, symBinAddr: 0x100006488, symSize: 0x98 }
  - { offset: 0x22FD1, size: 0x8, addend: 0x0, symName: __ZL18stbiw__zlib_countmPhS_i, symObjAddr: 0x3458, symBinAddr: 0x100006520, symSize: 0x9C }
  - { offset: 0x2302C, size: 0x8, addend: 0x0, symName: __ZL18stbiw__zlib_bitrevii, symObjAddr: 0x34F4, symBinAddr: 0x1000065BC, symSize: 0x54 }
  - { offset: 0x23078, size: 0x8, addend: 0x0, symName: _stbi_write_png_to_mem, symObjAddr: 0x3548, symBinAddr: 0x100006610, symSize: 0x734 }
  - { offset: 0x231F1, size: 0x8, addend: 0x0, symName: __ZL12stbiw__wpcrcPPhi, symObjAddr: 0x42D8, symBinAddr: 0x1000073A0, symSize: 0xAC }
  - { offset: 0x23239, size: 0x8, addend: 0x0, symName: __ZL12stbiw__paethiii, symObjAddr: 0x4384, symBinAddr: 0x10000744C, symSize: 0xDC }
  - { offset: 0x232C1, size: 0x8, addend: 0x0, symName: _stbi_write_png, symObjAddr: 0x44E0, symBinAddr: 0x1000075A8, symSize: 0xC8 }
  - { offset: 0x23363, size: 0x8, addend: 0x0, symName: _stbi_write_png_to_func, symObjAddr: 0x45A8, symBinAddr: 0x100007670, symSize: 0x94 }
  - { offset: 0x23405, size: 0x8, addend: 0x0, symName: _stbi_write_jpg_to_func, symObjAddr: 0x463C, symBinAddr: 0x100007704, symSize: 0xAC }
  - { offset: 0x23499, size: 0x8, addend: 0x0, symName: __ZL11stbiw__putcP19stbi__write_contexth, symObjAddr: 0x5780, symBinAddr: 0x100008848, symSize: 0x40 }
  - { offset: 0x234D2, size: 0x8, addend: 0x0, symName: __ZL20stbiw__jpg_processDUP19stbi__write_contextPiS1_PfiS2_iPA2_KtS5_, symObjAddr: 0x57C0, symBinAddr: 0x100008888, symSize: 0x620 }
  - { offset: 0x236D6, size: 0x8, addend: 0x0, symName: __ZL20stbiw__jpg_writeBitsP19stbi__write_contextPiS1_PKt, symObjAddr: 0x5DE0, symBinAddr: 0x100008EA8, symSize: 0xFC }
  - { offset: 0x23769, size: 0x8, addend: 0x0, symName: __ZL14stbiw__jpg_DCTPfS_S_S_S_S_S_S_, symObjAddr: 0x5EDC, symBinAddr: 0x100008FA4, symSize: 0x2E4 }
  - { offset: 0x239A6, size: 0x8, addend: 0x0, symName: __ZL19stbiw__jpg_calcBitsiPt, symObjAddr: 0x61C0, symBinAddr: 0x100009288, symSize: 0xD4 }
  - { offset: 0x239EE, size: 0x8, addend: 0x0, symName: _stbi_write_jpg, symObjAddr: 0x6294, symBinAddr: 0x10000935C, symSize: 0xD8 }
  - { offset: 0x23A92, size: 0x8, addend: 0x0, symName: _stbi_failure_reason, symObjAddr: 0x636C, symBinAddr: 0x100009434, symSize: 0x24 }
  - { offset: 0x23AAD, size: 0x8, addend: 0x0, symName: _stbi_image_free, symObjAddr: 0x6390, symBinAddr: 0x100009458, symSize: 0x24 }
  - { offset: 0x23AD4, size: 0x8, addend: 0x0, symName: _stbi_set_flip_vertically_on_load, symObjAddr: 0x63B4, symBinAddr: 0x10000947C, symSize: 0x1C }
  - { offset: 0x23AFB, size: 0x8, addend: 0x0, symName: _stbi_set_flip_vertically_on_load_thread, symObjAddr: 0x63D0, symBinAddr: 0x100009498, symSize: 0x4C }
  - { offset: 0x23B21, size: 0x8, addend: 0x0, symName: _stbi_load, symObjAddr: 0x641C, symBinAddr: 0x1000094E4, symSize: 0xA0 }
  - { offset: 0x23BA5, size: 0x8, addend: 0x0, symName: __ZL11stbi__fopenPKcS0_, symObjAddr: 0x64BC, symBinAddr: 0x100009584, symSize: 0x34 }
  - { offset: 0x23BF1, size: 0x8, addend: 0x0, symName: __ZL9stbi__errPKc, symObjAddr: 0x64F0, symBinAddr: 0x1000095B8, symSize: 0x38 }
  - { offset: 0x23C1F, size: 0x8, addend: 0x0, symName: _stbi_load_from_file, symObjAddr: 0x6528, symBinAddr: 0x1000095F0, symSize: 0xD8 }
  - { offset: 0x23CA5, size: 0x8, addend: 0x0, symName: __ZL16stbi__start_fileP13stbi__contextP7__sFILE, symObjAddr: 0x6600, symBinAddr: 0x1000096C8, symSize: 0x34 }
  - { offset: 0x23CDE, size: 0x8, addend: 0x0, symName: __ZL31stbi__load_and_postprocess_8bitP13stbi__contextPiS1_S1_i, symObjAddr: 0x6634, symBinAddr: 0x1000096FC, symSize: 0x1F4 }
  - { offset: 0x23D83, size: 0x8, addend: 0x0, symName: __ZL21stbi__start_callbacksP13stbi__contextP17stbi_io_callbacksPv, symObjAddr: 0x6828, symBinAddr: 0x1000098F0, symSize: 0x9C }
  - { offset: 0x23DCB, size: 0x8, addend: 0x0, symName: __ZL19stbi__refill_bufferP13stbi__context, symObjAddr: 0x68C4, symBinAddr: 0x10000998C, symSize: 0xDC }
  - { offset: 0x23E04, size: 0x8, addend: 0x0, symName: __ZL16stbi__stdio_readPvPci, symObjAddr: 0x69A0, symBinAddr: 0x100009A68, symSize: 0x38 }
  - { offset: 0x23E50, size: 0x8, addend: 0x0, symName: __ZL16stbi__stdio_skipPvi, symObjAddr: 0x69D8, symBinAddr: 0x100009AA0, symSize: 0x5C }
  - { offset: 0x23E98, size: 0x8, addend: 0x0, symName: __ZL15stbi__stdio_eofPv, symObjAddr: 0x6A34, symBinAddr: 0x100009AFC, symSize: 0x54 }
  - { offset: 0x23EC6, size: 0x8, addend: 0x0, symName: __ZL15stbi__load_mainP13stbi__contextPiS1_S1_iP17stbi__result_infoi, symObjAddr: 0x6A88, symBinAddr: 0x100009B50, symSize: 0x2B8 }
  - { offset: 0x23F6B, size: 0x8, addend: 0x0, symName: __ZL21stbi__convert_16_to_8Ptiii, symObjAddr: 0x6D40, symBinAddr: 0x100009E08, symSize: 0xE0 }
  - { offset: 0x23FF3, size: 0x8, addend: 0x0, symName: __ZL19stbi__vertical_flipPviii, symObjAddr: 0x6E20, symBinAddr: 0x100009EE8, symSize: 0x19C }
  - { offset: 0x240E4, size: 0x8, addend: 0x0, symName: __ZL14stbi__png_testP13stbi__context, symObjAddr: 0x6FBC, symBinAddr: 0x10000A084, symSize: 0x34 }
  - { offset: 0x24121, size: 0x8, addend: 0x0, symName: __ZL14stbi__png_loadP13stbi__contextPiS1_S1_iP17stbi__result_info, symObjAddr: 0x6FF0, symBinAddr: 0x10000A0B8, symSize: 0x54 }
  - { offset: 0x241A9, size: 0x8, addend: 0x0, symName: __ZL14stbi__bmp_testP13stbi__context, symObjAddr: 0x7044, symBinAddr: 0x10000A10C, symSize: 0x34 }
  - { offset: 0x241E6, size: 0x8, addend: 0x0, symName: __ZL14stbi__bmp_loadP13stbi__contextPiS1_S1_iP17stbi__result_info, symObjAddr: 0x7078, symBinAddr: 0x10000A140, symSize: 0x11BC }
  - { offset: 0x2458A, size: 0x8, addend: 0x0, symName: __ZL14stbi__gif_testP13stbi__context, symObjAddr: 0x8234, symBinAddr: 0x10000B2FC, symSize: 0x34 }
  - { offset: 0x245C7, size: 0x8, addend: 0x0, symName: __ZL14stbi__gif_loadP13stbi__contextPiS1_S1_iP17stbi__result_info, symObjAddr: 0x8268, symBinAddr: 0x10000B330, symSize: 0x154 }
  - { offset: 0x2465F, size: 0x8, addend: 0x0, symName: __ZL14stbi__psd_testP13stbi__context, symObjAddr: 0x83BC, symBinAddr: 0x10000B484, symSize: 0x44 }
  - { offset: 0x2469C, size: 0x8, addend: 0x0, symName: __ZL14stbi__psd_loadP13stbi__contextPiS1_S1_iP17stbi__result_infoi, symObjAddr: 0x8400, symBinAddr: 0x10000B4C8, symSize: 0xB0C }
  - { offset: 0x2491F, size: 0x8, addend: 0x0, symName: __ZL14stbi__pic_testP13stbi__context, symObjAddr: 0x8F0C, symBinAddr: 0x10000BFD4, symSize: 0x34 }
  - { offset: 0x2495C, size: 0x8, addend: 0x0, symName: __ZL14stbi__pic_loadP13stbi__contextPiS1_S1_iP17stbi__result_info, symObjAddr: 0x8F40, symBinAddr: 0x10000C008, symSize: 0x278 }
  - { offset: 0x24A20, size: 0x8, addend: 0x0, symName: __ZL15stbi__jpeg_testP13stbi__context, symObjAddr: 0x91B8, symBinAddr: 0x10000C280, symSize: 0x98 }
  - { offset: 0x24A6C, size: 0x8, addend: 0x0, symName: __ZL15stbi__jpeg_loadP13stbi__contextPiS1_S1_iP17stbi__result_info, symObjAddr: 0x9250, symBinAddr: 0x10000C318, symSize: 0xBC }
  - { offset: 0x24B03, size: 0x8, addend: 0x0, symName: __ZL14stbi__pnm_testP13stbi__context, symObjAddr: 0x930C, symBinAddr: 0x10000C3D4, symSize: 0x84 }
  - { offset: 0x24B4F, size: 0x8, addend: 0x0, symName: __ZL14stbi__pnm_loadP13stbi__contextPiS1_S1_iP17stbi__result_info, symObjAddr: 0x9390, symBinAddr: 0x10000C458, symSize: 0x300 }
  - { offset: 0x24BD7, size: 0x8, addend: 0x0, symName: __ZL14stbi__hdr_testP13stbi__context, symObjAddr: 0x9690, symBinAddr: 0x10000C758, symSize: 0x68 }
  - { offset: 0x24C14, size: 0x8, addend: 0x0, symName: __ZL14stbi__hdr_loadP13stbi__contextPiS1_S1_iP17stbi__result_info, symObjAddr: 0x96F8, symBinAddr: 0x10000C7C0, symSize: 0x8C8 }
  - { offset: 0x24E08, size: 0x8, addend: 0x0, symName: __ZL16stbi__hdr_to_ldrPfiii, symObjAddr: 0x9FC0, symBinAddr: 0x10000D088, symSize: 0x290 }
  - { offset: 0x24ED9, size: 0x8, addend: 0x0, symName: __ZL14stbi__tga_testP13stbi__context, symObjAddr: 0xA250, symBinAddr: 0x10000D318, symSize: 0x234 }
  - { offset: 0x24F45, size: 0x8, addend: 0x0, symName: __ZL14stbi__tga_loadP13stbi__contextPiS1_S1_iP17stbi__result_info, symObjAddr: 0xA484, symBinAddr: 0x10000D54C, symSize: 0xAA0 }
  - { offset: 0x25238, size: 0x8, addend: 0x0, symName: __ZL12stbi__rewindP13stbi__context, symObjAddr: 0xAFB4, symBinAddr: 0x10000E07C, symSize: 0x30 }
  - { offset: 0x25262, size: 0x8, addend: 0x0, symName: __ZL10stbi__get8P13stbi__context, symObjAddr: 0xAFE4, symBinAddr: 0x10000E0AC, symSize: 0x94 }
  - { offset: 0x25290, size: 0x8, addend: 0x0, symName: __ZL12stbi__do_pngP9stbi__pngPiS1_S1_iP17stbi__result_info, symObjAddr: 0xB078, symBinAddr: 0x10000E140, symSize: 0x27C }
  - { offset: 0x25318, size: 0x8, addend: 0x0, symName: __ZL20stbi__convert_formatPhiijj, symObjAddr: 0xC1F0, symBinAddr: 0x10000F2B8, symSize: 0x7E0 }
  - { offset: 0x253DB, size: 0x8, addend: 0x0, symName: __ZL22stbi__convert_format16Ptiijj, symObjAddr: 0xC9D0, symBinAddr: 0x10000FA98, symSize: 0x7E8 }
  - { offset: 0x2549E, size: 0x8, addend: 0x0, symName: __ZL22stbi__get_chunk_headerP13stbi__context, symObjAddr: 0xD1B8, symBinAddr: 0x100010280, symSize: 0x38 }
  - { offset: 0x254DB, size: 0x8, addend: 0x0, symName: __ZL10stbi__skipP13stbi__contexti, symObjAddr: 0xD1F0, symBinAddr: 0x1000102B8, symSize: 0xDC }
  - { offset: 0x25531, size: 0x8, addend: 0x0, symName: __ZL13stbi__get32beP13stbi__context, symObjAddr: 0xD2CC, symBinAddr: 0x100010394, symSize: 0x40 }
  - { offset: 0x2556E, size: 0x8, addend: 0x0, symName: __ZL13stbi__get16beP13stbi__context, symObjAddr: 0xD30C, symBinAddr: 0x1000103D4, symSize: 0x40 }
  - { offset: 0x255AB, size: 0x8, addend: 0x0, symName: __ZL10stbi__getnP13stbi__contextPhi, symObjAddr: 0xD34C, symBinAddr: 0x100010414, symSize: 0x144 }
  - { offset: 0x25640, size: 0x8, addend: 0x0, symName: _stbi_zlib_decode_malloc_guesssize_headerflag, symObjAddr: 0xD490, symBinAddr: 0x100010558, symSize: 0x110 }
  - { offset: 0x256C5, size: 0x8, addend: 0x0, symName: __ZL22stbi__create_png_imageP9stbi__pngPhjiiii, symObjAddr: 0xD5A0, symBinAddr: 0x100010668, symSize: 0x424 }
  - { offset: 0x25863, size: 0x8, addend: 0x0, symName: __ZL28stbi__compute_transparency16P9stbi__pngPti, symObjAddr: 0xD9C4, symBinAddr: 0x100010A8C, symSize: 0x1CC }
  - { offset: 0x258EB, size: 0x8, addend: 0x0, symName: __ZL26stbi__compute_transparencyP9stbi__pngPhi, symObjAddr: 0xDB90, symBinAddr: 0x100010C58, symSize: 0x1CC }
  - { offset: 0x25973, size: 0x8, addend: 0x0, symName: __ZL15stbi__de_iphoneP9stbi__png, symObjAddr: 0xDD5C, symBinAddr: 0x100010E24, symSize: 0x2B0 }
  - { offset: 0x25A5C, size: 0x8, addend: 0x0, symName: __ZL24stbi__expand_png_paletteP9stbi__pngPhii, symObjAddr: 0xE00C, symBinAddr: 0x1000110D4, symSize: 0x22C }
  - { offset: 0x25B3C, size: 0x8, addend: 0x0, symName: __ZL26stbi__create_png_image_rawP9stbi__pngPhjijjii, symObjAddr: 0xE238, symBinAddr: 0x100011300, symSize: 0xCC0 }
  - { offset: 0x25D95, size: 0x8, addend: 0x0, symName: __ZL17stbi__malloc_mad3iiii, symObjAddr: 0xEEF8, symBinAddr: 0x100011FC0, symSize: 0x80 }
  - { offset: 0x25DF0, size: 0x8, addend: 0x0, symName: __ZL21stbi__mad3sizes_validiiii, symObjAddr: 0xEF78, symBinAddr: 0x100012040, symSize: 0x9C }
  - { offset: 0x25E4B, size: 0x8, addend: 0x0, symName: __ZL21stbi__mad2sizes_validiii, symObjAddr: 0xF014, symBinAddr: 0x1000120DC, symSize: 0x6C }
  - { offset: 0x25E97, size: 0x8, addend: 0x0, symName: __ZL17stbi__malloc_mad2iii, symObjAddr: 0xF080, symBinAddr: 0x100012148, symSize: 0x70 }
  - { offset: 0x25EE3, size: 0x8, addend: 0x0, symName: __ZL11stbi__paethiii, symObjAddr: 0xF0F0, symBinAddr: 0x1000121B8, symSize: 0x10C }
  - { offset: 0x25F7A, size: 0x8, addend: 0x0, symName: __ZL30stbi__create_png_alpha_expand8PhS_ji, symObjAddr: 0xF1FC, symBinAddr: 0x1000122C4, symSize: 0x1C8 }
  - { offset: 0x25FE0, size: 0x8, addend: 0x0, symName: __ZL21stbi__mul2sizes_validii, symObjAddr: 0xF3C4, symBinAddr: 0x10001248C, symSize: 0x70 }
  - { offset: 0x2601D, size: 0x8, addend: 0x0, symName: __ZL20stbi__addsizes_validii, symObjAddr: 0xF434, symBinAddr: 0x1000124FC, symSize: 0x4C }
  - { offset: 0x2605A, size: 0x8, addend: 0x0, symName: __ZL12stbi__mallocm, symObjAddr: 0xF480, symBinAddr: 0x100012548, symSize: 0x24 }
  - { offset: 0x26088, size: 0x8, addend: 0x0, symName: __ZL15stbi__compute_yiii, symObjAddr: 0xF4A4, symBinAddr: 0x10001256C, symSize: 0x4C }
  - { offset: 0x260D4, size: 0x8, addend: 0x0, symName: __ZL18stbi__compute_y_16iii, symObjAddr: 0xF4F0, symBinAddr: 0x1000125B8, symSize: 0x4C }
  - { offset: 0x26120, size: 0x8, addend: 0x0, symName: __ZL18stbi__bmp_test_rawP13stbi__context, symObjAddr: 0xF53C, symBinAddr: 0x100012604, symSize: 0x110 }
  - { offset: 0x2616C, size: 0x8, addend: 0x0, symName: __ZL13stbi__get32leP13stbi__context, symObjAddr: 0xF64C, symBinAddr: 0x100012714, symSize: 0x40 }
  - { offset: 0x261A9, size: 0x8, addend: 0x0, symName: __ZL13stbi__get16leP13stbi__context, symObjAddr: 0xF68C, symBinAddr: 0x100012754, symSize: 0x40 }
  - { offset: 0x261E6, size: 0x8, addend: 0x0, symName: __ZL22stbi__bmp_parse_headerP13stbi__contextP14stbi__bmp_data, symObjAddr: 0xF6CC, symBinAddr: 0x100012794, symSize: 0x5B0 }
  - { offset: 0x2626C, size: 0x8, addend: 0x0, symName: __ZL14stbi__high_bitj, symObjAddr: 0xFC7C, symBinAddr: 0x100012D44, symSize: 0x10C }
  - { offset: 0x262A9, size: 0x8, addend: 0x0, symName: __ZL14stbi__bitcountj, symObjAddr: 0xFD88, symBinAddr: 0x100012E50, symSize: 0x80 }
  - { offset: 0x262D7, size: 0x8, addend: 0x0, symName: __ZL27stbi__bmp_set_mask_defaultsP14stbi__bmp_datai, symObjAddr: 0xFF38, symBinAddr: 0x100013000, symSize: 0x108 }
  - { offset: 0x26314, size: 0x8, addend: 0x0, symName: __ZL18stbi__gif_test_rawP13stbi__context, symObjAddr: 0x10040, symBinAddr: 0x100013108, symSize: 0xD4 }
  - { offset: 0x26351, size: 0x8, addend: 0x0, symName: __ZL19stbi__gif_load_nextP13stbi__contextP9stbi__gifPiiPh, symObjAddr: 0x10114, symBinAddr: 0x1000131DC, symSize: 0x928 }
  - { offset: 0x2649D, size: 0x8, addend: 0x0, symName: __ZL16stbi__gif_headerP13stbi__contextP9stbi__gifPii, symObjAddr: 0x10A3C, symBinAddr: 0x100013B04, symSize: 0x248 }
  - { offset: 0x26507, size: 0x8, addend: 0x0, symName: __ZL26stbi__gif_parse_colortableP13stbi__contextPA4_hii, symObjAddr: 0x10C84, symBinAddr: 0x100013D4C, symSize: 0xC8 }
  - { offset: 0x2656D, size: 0x8, addend: 0x0, symName: __ZL24stbi__process_gif_rasterP13stbi__contextP9stbi__gif, symObjAddr: 0x10D4C, symBinAddr: 0x100013E14, symSize: 0x458 }
  - { offset: 0x2667B, size: 0x8, addend: 0x0, symName: __ZL18stbi__out_gif_codeP9stbi__gift, symObjAddr: 0x111A4, symBinAddr: 0x10001426C, symSize: 0x298 }
  - { offset: 0x266E1, size: 0x8, addend: 0x0, symName: __ZL20stbi__psd_decode_rleP13stbi__contextPhi, symObjAddr: 0x1143C, symBinAddr: 0x100014504, symSize: 0x1A0 }
  - { offset: 0x26777, size: 0x8, addend: 0x0, symName: __ZL19stbi__pic_test_coreP13stbi__context, symObjAddr: 0x115DC, symBinAddr: 0x1000146A4, symSize: 0xA0 }
  - { offset: 0x267B4, size: 0x8, addend: 0x0, symName: __ZL13stbi__pic_is4P13stbi__contextPKc, symObjAddr: 0x1167C, symBinAddr: 0x100014744, symSize: 0x84 }
  - { offset: 0x26800, size: 0x8, addend: 0x0, symName: __ZL12stbi__at_eofP13stbi__context, symObjAddr: 0x11700, symBinAddr: 0x1000147C8, symSize: 0x94 }
  - { offset: 0x2682E, size: 0x8, addend: 0x0, symName: __ZL19stbi__pic_load_coreP13stbi__contextiiPiPh, symObjAddr: 0x11794, symBinAddr: 0x10001485C, symSize: 0x604 }
  - { offset: 0x26A24, size: 0x8, addend: 0x0, symName: __ZL13stbi__readvalP13stbi__contextiPh, symObjAddr: 0x11D98, symBinAddr: 0x100014E60, symSize: 0xD0 }
  - { offset: 0x26A8F, size: 0x8, addend: 0x0, symName: __ZL13stbi__copyvaliPhPKh, symObjAddr: 0x11E68, symBinAddr: 0x100014F30, symSize: 0x90 }
  - { offset: 0x26AF6, size: 0x8, addend: 0x0, symName: __ZL16stbi__setup_jpegP10stbi__jpeg, symObjAddr: 0x11EF8, symBinAddr: 0x100014FC0, symSize: 0x40 }
  - { offset: 0x26B20, size: 0x8, addend: 0x0, symName: __ZL24stbi__decode_jpeg_headerP10stbi__jpegi, symObjAddr: 0x11F38, symBinAddr: 0x100015000, symSize: 0x1BC }
  - { offset: 0x26B6C, size: 0x8, addend: 0x0, symName: __ZL16stbi__idct_blockPhiPs, symObjAddr: 0x120F4, symBinAddr: 0x1000151BC, symSize: 0x898 }
  - { offset: 0x26DD7, size: 0x8, addend: 0x0, symName: __ZL22stbi__YCbCr_to_RGB_rowPhPKhS1_S1_ii, symObjAddr: 0x1298C, symBinAddr: 0x100015A54, symSize: 0x200 }
  - { offset: 0x26EC5, size: 0x8, addend: 0x0, symName: __ZL23stbi__resample_row_hv_2PhS_S_ii, symObjAddr: 0x12B8C, symBinAddr: 0x100015C54, symSize: 0x18C }
  - { offset: 0x26F5C, size: 0x8, addend: 0x0, symName: __ZL11stbi__clampi, symObjAddr: 0x12D18, symBinAddr: 0x100015DE0, symSize: 0x64 }
  - { offset: 0x26F8A, size: 0x8, addend: 0x0, symName: __ZL16stbi__get_markerP10stbi__jpeg, symObjAddr: 0x12D7C, symBinAddr: 0x100015E44, symSize: 0xC8 }
  - { offset: 0x26FC7, size: 0x8, addend: 0x0, symName: __ZL19stbi__build_huffmanP13stbi__huffmanPi, symObjAddr: 0x14130, symBinAddr: 0x1000171F8, symSize: 0x318 }
  - { offset: 0x2708A, size: 0x8, addend: 0x0, symName: __ZL19stbi__build_fast_acPsP13stbi__huffman, symObjAddr: 0x14448, symBinAddr: 0x100017510, symSize: 0x1A0 }
  - { offset: 0x27165, size: 0x8, addend: 0x0, symName: __ZL26stbi__free_jpeg_componentsP10stbi__jpegii, symObjAddr: 0x145E8, symBinAddr: 0x1000176B0, symSize: 0x1F0 }
  - { offset: 0x271C0, size: 0x8, addend: 0x0, symName: __ZL15load_jpeg_imageP10stbi__jpegPiS1_S1_i, symObjAddr: 0x147D8, symBinAddr: 0x1000178A0, symSize: 0xF74 }
  - { offset: 0x273FC, size: 0x8, addend: 0x0, symName: __ZL23stbi__decode_jpeg_imageP10stbi__jpeg, symObjAddr: 0x1574C, symBinAddr: 0x100018814, symSize: 0x274 }
  - { offset: 0x27465, size: 0x8, addend: 0x0, symName: __ZL18stbi__cleanup_jpegP10stbi__jpeg, symObjAddr: 0x159C0, symBinAddr: 0x100018A88, symSize: 0x34 }
  - { offset: 0x2748F, size: 0x8, addend: 0x0, symName: __ZL14resample_row_1PhS_S_ii, symObjAddr: 0x159F4, symBinAddr: 0x100018ABC, symSize: 0x24 }
  - { offset: 0x274F9, size: 0x8, addend: 0x0, symName: __ZL22stbi__resample_row_v_2PhS_S_ii, symObjAddr: 0x15A18, symBinAddr: 0x100018AE0, symSize: 0x8C }
  - { offset: 0x27572, size: 0x8, addend: 0x0, symName: __ZL22stbi__resample_row_h_2PhS_S_ii, symObjAddr: 0x15AA4, symBinAddr: 0x100018B6C, symSize: 0x1D0 }
  - { offset: 0x27617, size: 0x8, addend: 0x0, symName: __ZL26stbi__resample_row_genericPhS_S_ii, symObjAddr: 0x15C74, symBinAddr: 0x100018D3C, symSize: 0xB4 }
  - { offset: 0x2769F, size: 0x8, addend: 0x0, symName: __ZL15stbi__blinn_8x8hh, symObjAddr: 0x15D28, symBinAddr: 0x100018DF0, symSize: 0x3C }
  - { offset: 0x276EB, size: 0x8, addend: 0x0, symName: __ZL25stbi__process_scan_headerP10stbi__jpeg, symObjAddr: 0x15D64, symBinAddr: 0x100018E2C, symSize: 0x440 }
  - { offset: 0x2778F, size: 0x8, addend: 0x0, symName: __ZL30stbi__parse_entropy_coded_dataP10stbi__jpeg, symObjAddr: 0x161A4, symBinAddr: 0x10001926C, symSize: 0xC58 }
  - { offset: 0x27A5E, size: 0x8, addend: 0x0, symName: __ZL27stbi__skip_jpeg_junk_at_endP10stbi__jpeg, symObjAddr: 0x16DFC, symBinAddr: 0x100019EC4, symSize: 0xC8 }
  - { offset: 0x27AA9, size: 0x8, addend: 0x0, symName: __ZL17stbi__jpeg_finishP10stbi__jpeg, symObjAddr: 0x16EC4, symBinAddr: 0x100019F8C, symSize: 0x228 }
  - { offset: 0x27B58, size: 0x8, addend: 0x0, symName: __ZL16stbi__jpeg_resetP10stbi__jpeg, symObjAddr: 0x170EC, symBinAddr: 0x10001A1B4, symSize: 0xE0 }
  - { offset: 0x27B82, size: 0x8, addend: 0x0, symName: __ZL23stbi__jpeg_decode_blockP10stbi__jpegPsP13stbi__huffmanS3_S1_iPt, symObjAddr: 0x171CC, symBinAddr: 0x10001A294, symSize: 0x3E0 }
  - { offset: 0x27CA5, size: 0x8, addend: 0x0, symName: __ZL24stbi__grow_buffer_unsafeP10stbi__jpeg, symObjAddr: 0x175AC, symBinAddr: 0x10001A674, symSize: 0x13C }
  - { offset: 0x27D01, size: 0x8, addend: 0x0, symName: __ZL31stbi__jpeg_decode_block_prog_dcP10stbi__jpegPsP13stbi__huffmani, symObjAddr: 0x176E8, symBinAddr: 0x10001A7B0, symSize: 0x244 }
  - { offset: 0x27D89, size: 0x8, addend: 0x0, symName: __ZL31stbi__jpeg_decode_block_prog_acP10stbi__jpegPsP13stbi__huffmanS1_, symObjAddr: 0x1792C, symBinAddr: 0x10001A9F4, symSize: 0x6F0 }
  - { offset: 0x27EF9, size: 0x8, addend: 0x0, symName: __ZL22stbi__jpeg_huff_decodeP10stbi__jpegP13stbi__huffman, symObjAddr: 0x1801C, symBinAddr: 0x10001B0E4, symSize: 0x30C }
  - { offset: 0x27F80, size: 0x8, addend: 0x0, symName: __ZL20stbi__extend_receiveP10stbi__jpegi, symObjAddr: 0x18328, symBinAddr: 0x10001B3F0, symSize: 0x134 }
  - { offset: 0x27FDB, size: 0x8, addend: 0x0, symName: __ZL19stbi__addints_validii, symObjAddr: 0x1845C, symBinAddr: 0x10001B524, symSize: 0xA0 }
  - { offset: 0x28018, size: 0x8, addend: 0x0, symName: __ZL22stbi__mul2shorts_validii, symObjAddr: 0x184FC, symBinAddr: 0x10001B5C4, symSize: 0xD0 }
  - { offset: 0x28055, size: 0x8, addend: 0x0, symName: __ZL18stbi__jpeg_get_bitP10stbi__jpeg, symObjAddr: 0x185CC, symBinAddr: 0x10001B694, symSize: 0xB0 }
  - { offset: 0x28092, size: 0x8, addend: 0x0, symName: __ZL19stbi__jpeg_get_bitsP10stbi__jpegi, symObjAddr: 0x1867C, symBinAddr: 0x10001B744, symSize: 0x104 }
  - { offset: 0x280DF, size: 0x8, addend: 0x0, symName: __ZL21stbi__jpeg_dequantizePsPt, symObjAddr: 0x18780, symBinAddr: 0x10001B848, symSize: 0x60 }
  - { offset: 0x28127, size: 0x8, addend: 0x0, symName: __ZL14stbi__pnm_infoP13stbi__contextPiS1_S1_, symObjAddr: 0x187E0, symBinAddr: 0x10001B8A8, symSize: 0x1F4 }
  - { offset: 0x281CD, size: 0x8, addend: 0x0, symName: __ZL21stbi__mad4sizes_validiiiii, symObjAddr: 0x189D4, symBinAddr: 0x10001BA9C, symSize: 0xD4 }
  - { offset: 0x28237, size: 0x8, addend: 0x0, symName: __ZL17stbi__malloc_mad4iiiii, symObjAddr: 0x18AA8, symBinAddr: 0x10001BB70, symSize: 0x90 }
  - { offset: 0x282A1, size: 0x8, addend: 0x0, symName: __ZL25stbi__pnm_skip_whitespaceP13stbi__contextPc, symObjAddr: 0x18B38, symBinAddr: 0x10001BC00, symSize: 0x118 }
  - { offset: 0x282DA, size: 0x8, addend: 0x0, symName: __ZL20stbi__pnm_getintegerP13stbi__contextPc, symObjAddr: 0x18C50, symBinAddr: 0x10001BD18, symSize: 0x104 }
  - { offset: 0x28326, size: 0x8, addend: 0x0, symName: __ZL17stbi__pnm_isspacec, symObjAddr: 0x18D54, symBinAddr: 0x10001BE1C, symSize: 0xA4 }
  - { offset: 0x28354, size: 0x8, addend: 0x0, symName: __ZL17stbi__pnm_isdigitc, symObjAddr: 0x18DF8, symBinAddr: 0x10001BEC0, symSize: 0x44 }
  - { offset: 0x28382, size: 0x8, addend: 0x0, symName: __ZL19stbi__hdr_test_coreP13stbi__contextPKc, symObjAddr: 0x18E3C, symBinAddr: 0x10001BF04, symSize: 0x94 }
  - { offset: 0x283CE, size: 0x8, addend: 0x0, symName: __ZL18stbi__hdr_gettokenP13stbi__contextPc, symObjAddr: 0x18ED0, symBinAddr: 0x10001BF98, symSize: 0x10C }
  - { offset: 0x28429, size: 0x8, addend: 0x0, symName: __ZL17stbi__hdr_convertPfPhi, symObjAddr: 0x18FDC, symBinAddr: 0x10001C0A4, symSize: 0x1D0 }
  - { offset: 0x2848E, size: 0x8, addend: 0x0, symName: __ZL18stbi__tga_get_compiiPi, symObjAddr: 0x191F4, symBinAddr: 0x10001C2BC, symSize: 0xF4 }
  - { offset: 0x284DA, size: 0x8, addend: 0x0, symName: __ZL20stbi__tga_read_rgb16P13stbi__contextPh, symObjAddr: 0x192E8, symBinAddr: 0x10001C3B0, symSize: 0xA8 }
  - { offset: 0x2855E, size: 0x8, addend: 0x0, symName: _stbi_load_from_file_16, symObjAddr: 0x19390, symBinAddr: 0x10001C458, symSize: 0xD8 }
  - { offset: 0x285E4, size: 0x8, addend: 0x0, symName: __ZL32stbi__load_and_postprocess_16bitP13stbi__contextPiS1_S1_i, symObjAddr: 0x19468, symBinAddr: 0x10001C530, symSize: 0x1F8 }
  - { offset: 0x28689, size: 0x8, addend: 0x0, symName: __ZL21stbi__convert_8_to_16Phiii, symObjAddr: 0x19660, symBinAddr: 0x10001C728, symSize: 0xF4 }
  - { offset: 0x28711, size: 0x8, addend: 0x0, symName: _stbi_load_16, symObjAddr: 0x19754, symBinAddr: 0x10001C81C, symSize: 0xA0 }
  - { offset: 0x28795, size: 0x8, addend: 0x0, symName: _stbi_load_16_from_memory, symObjAddr: 0x197F4, symBinAddr: 0x10001C8BC, symSize: 0x9C }
  - { offset: 0x2881C, size: 0x8, addend: 0x0, symName: __ZL15stbi__start_memP13stbi__contextPKhi, symObjAddr: 0x19890, symBinAddr: 0x10001C958, symSize: 0x60 }
  - { offset: 0x28864, size: 0x8, addend: 0x0, symName: _stbi_load_16_from_callbacks, symObjAddr: 0x198F0, symBinAddr: 0x10001C9B8, symSize: 0x9C }
  - { offset: 0x288EA, size: 0x8, addend: 0x0, symName: _stbi_load_from_memory, symObjAddr: 0x1998C, symBinAddr: 0x10001CA54, symSize: 0x9C }
  - { offset: 0x28970, size: 0x8, addend: 0x0, symName: _stbi_load_from_callbacks, symObjAddr: 0x19A28, symBinAddr: 0x10001CAF0, symSize: 0x9C }
  - { offset: 0x289F6, size: 0x8, addend: 0x0, symName: _stbi_load_gif_from_memory, symObjAddr: 0x19AC4, symBinAddr: 0x10001CB8C, symSize: 0x134 }
  - { offset: 0x28AAD, size: 0x8, addend: 0x0, symName: __ZL19stbi__load_gif_mainP13stbi__contextPPiS1_S1_S1_S1_i, symObjAddr: 0x19BF8, symBinAddr: 0x10001CCC0, symSize: 0x470 }
  - { offset: 0x28BFB, size: 0x8, addend: 0x0, symName: __ZL26stbi__vertical_flip_slicesPviiii, symObjAddr: 0x1A068, symBinAddr: 0x10001D130, symSize: 0xA0 }
  - { offset: 0x28C8E, size: 0x8, addend: 0x0, symName: __ZL28stbi__load_gif_main_outofmemP9stbi__gifPhPPi, symObjAddr: 0x1A108, symBinAddr: 0x10001D1D0, symSize: 0xA4 }
  - { offset: 0x28CDA, size: 0x8, addend: 0x0, symName: _stbi_loadf_from_memory, symObjAddr: 0x1A1AC, symBinAddr: 0x10001D274, symSize: 0x9C }
  - { offset: 0x28D60, size: 0x8, addend: 0x0, symName: __ZL16stbi__loadf_mainP13stbi__contextPiS1_S1_i, symObjAddr: 0x1A248, symBinAddr: 0x10001D310, symSize: 0x140 }
  - { offset: 0x28E05, size: 0x8, addend: 0x0, symName: __ZL23stbi__float_postprocessPfPiS0_S0_i, symObjAddr: 0x1A388, symBinAddr: 0x10001D450, symSize: 0xE0 }
  - { offset: 0x28E88, size: 0x8, addend: 0x0, symName: __ZL16stbi__ldr_to_hdrPhiii, symObjAddr: 0x1A468, symBinAddr: 0x10001D530, symSize: 0x22C }
  - { offset: 0x28F1F, size: 0x8, addend: 0x0, symName: _stbi_loadf_from_callbacks, symObjAddr: 0x1A694, symBinAddr: 0x10001D75C, symSize: 0x9C }
  - { offset: 0x28FA5, size: 0x8, addend: 0x0, symName: _stbi_loadf, symObjAddr: 0x1A730, symBinAddr: 0x10001D7F8, symSize: 0xA0 }
  - { offset: 0x29029, size: 0x8, addend: 0x0, symName: _stbi_loadf_from_file, symObjAddr: 0x1A7D0, symBinAddr: 0x10001D898, symSize: 0x94 }
  - { offset: 0x2909E, size: 0x8, addend: 0x0, symName: _stbi_is_hdr_from_memory, symObjAddr: 0x1A864, symBinAddr: 0x10001D92C, symSize: 0x7C }
  - { offset: 0x290E6, size: 0x8, addend: 0x0, symName: _stbi_is_hdr, symObjAddr: 0x1A8E0, symBinAddr: 0x10001D9A8, symSize: 0x5C }
  - { offset: 0x2912E, size: 0x8, addend: 0x0, symName: _stbi_is_hdr_from_file, symObjAddr: 0x1A93C, symBinAddr: 0x10001DA04, symSize: 0x98 }
  - { offset: 0x29185, size: 0x8, addend: 0x0, symName: _stbi_is_hdr_from_callbacks, symObjAddr: 0x1A9D4, symBinAddr: 0x10001DA9C, symSize: 0x7C }
  - { offset: 0x291CE, size: 0x8, addend: 0x0, symName: _stbi_ldr_to_hdr_gamma, symObjAddr: 0x1AA50, symBinAddr: 0x10001DB18, symSize: 0x1C }
  - { offset: 0x291F5, size: 0x8, addend: 0x0, symName: _stbi_ldr_to_hdr_scale, symObjAddr: 0x1AA6C, symBinAddr: 0x10001DB34, symSize: 0x1C }
  - { offset: 0x2921C, size: 0x8, addend: 0x0, symName: _stbi_hdr_to_ldr_gamma, symObjAddr: 0x1AA88, symBinAddr: 0x10001DB50, symSize: 0x24 }
  - { offset: 0x29243, size: 0x8, addend: 0x0, symName: _stbi_hdr_to_ldr_scale, symObjAddr: 0x1AAAC, symBinAddr: 0x10001DB74, symSize: 0x24 }
  - { offset: 0x29269, size: 0x8, addend: 0x0, symName: _stbi_zlib_decode_malloc_guesssize, symObjAddr: 0x1AAD0, symBinAddr: 0x10001DB98, symSize: 0x10C }
  - { offset: 0x292DE, size: 0x8, addend: 0x0, symName: __ZL13stbi__do_zlibP10stbi__zbufPciii, symObjAddr: 0x1ABDC, symBinAddr: 0x10001DCA4, symSize: 0x70 }
  - { offset: 0x29348, size: 0x8, addend: 0x0, symName: __ZL16stbi__parse_zlibP10stbi__zbufi, symObjAddr: 0x1AC4C, symBinAddr: 0x10001DD14, symSize: 0x184 }
  - { offset: 0x293A3, size: 0x8, addend: 0x0, symName: __ZL23stbi__parse_zlib_headerP10stbi__zbuf, symObjAddr: 0x1ADD0, symBinAddr: 0x10001DE98, symSize: 0xF0 }
  - { offset: 0x293FE, size: 0x8, addend: 0x0, symName: __ZL14stbi__zreceiveP10stbi__zbufi, symObjAddr: 0x1AEC0, symBinAddr: 0x10001DF88, symSize: 0x90 }
  - { offset: 0x2944A, size: 0x8, addend: 0x0, symName: __ZL30stbi__parse_uncompressed_blockP10stbi__zbuf, symObjAddr: 0x1AF50, symBinAddr: 0x10001E018, symSize: 0x224 }
  - { offset: 0x294B4, size: 0x8, addend: 0x0, symName: __ZL20stbi__zbuild_huffmanP14stbi__zhuffmanPKhi, symObjAddr: 0x1B174, symBinAddr: 0x10001E23C, symSize: 0x3AC }
  - { offset: 0x295B3, size: 0x8, addend: 0x0, symName: __ZL25stbi__parse_huffman_blockP10stbi__zbuf, symObjAddr: 0x1B8A0, symBinAddr: 0x10001E968, symSize: 0x39C }
  - { offset: 0x29665, size: 0x8, addend: 0x0, symName: __ZL11stbi__zget8P10stbi__zbuf, symObjAddr: 0x1BC3C, symBinAddr: 0x10001ED04, symSize: 0x58 }
  - { offset: 0x29693, size: 0x8, addend: 0x0, symName: __ZL10stbi__zeofP10stbi__zbuf, symObjAddr: 0x1BC94, symBinAddr: 0x10001ED5C, symSize: 0x28 }
  - { offset: 0x296C1, size: 0x8, addend: 0x0, symName: __ZL15stbi__fill_bitsP10stbi__zbuf, symObjAddr: 0x1BCBC, symBinAddr: 0x10001ED84, symSize: 0xA4 }
  - { offset: 0x296EB, size: 0x8, addend: 0x0, symName: __ZL13stbi__zexpandP10stbi__zbufPci, symObjAddr: 0x1BD60, symBinAddr: 0x10001EE28, symSize: 0x190 }
  - { offset: 0x29773, size: 0x8, addend: 0x0, symName: __ZL17stbi__bit_reverseii, symObjAddr: 0x1BEF0, symBinAddr: 0x10001EFB8, symSize: 0x6C }
  - { offset: 0x297B0, size: 0x8, addend: 0x0, symName: __ZL18stbi__bitreverse16i, symObjAddr: 0x1BF5C, symBinAddr: 0x10001F024, symSize: 0x98 }
  - { offset: 0x297DE, size: 0x8, addend: 0x0, symName: __ZL21stbi__zhuffman_decodeP10stbi__zbufP14stbi__zhuffman, symObjAddr: 0x1BFF4, symBinAddr: 0x10001F0BC, symSize: 0x114 }
  - { offset: 0x29839, size: 0x8, addend: 0x0, symName: __ZL30stbi__zhuffman_decode_slowpathP10stbi__zbufP14stbi__zhuffman, symObjAddr: 0x1C108, symBinAddr: 0x10001F1D0, symSize: 0x160 }
  - { offset: 0x298A3, size: 0x8, addend: 0x0, symName: _stbi_zlib_decode_malloc, symObjAddr: 0x1C268, symBinAddr: 0x10001F330, symSize: 0x38 }
  - { offset: 0x298EB, size: 0x8, addend: 0x0, symName: _stbi_zlib_decode_buffer, symObjAddr: 0x1C2A0, symBinAddr: 0x10001F368, symSize: 0xCC }
  - { offset: 0x29951, size: 0x8, addend: 0x0, symName: _stbi_zlib_decode_noheader_malloc, symObjAddr: 0x1C36C, symBinAddr: 0x10001F434, symSize: 0x108 }
  - { offset: 0x299B7, size: 0x8, addend: 0x0, symName: _stbi_zlib_decode_noheader_buffer, symObjAddr: 0x1C474, symBinAddr: 0x10001F53C, symSize: 0xCC }
  - { offset: 0x29A1E, size: 0x8, addend: 0x0, symName: _stbi_set_unpremultiply_on_load, symObjAddr: 0x1C540, symBinAddr: 0x10001F608, symSize: 0x1C }
  - { offset: 0x29A45, size: 0x8, addend: 0x0, symName: _stbi_convert_iphone_png_to_rgb, symObjAddr: 0x1C55C, symBinAddr: 0x10001F624, symSize: 0x1C }
  - { offset: 0x29A6C, size: 0x8, addend: 0x0, symName: _stbi_set_unpremultiply_on_load_thread, symObjAddr: 0x1C578, symBinAddr: 0x10001F640, symSize: 0x4C }
  - { offset: 0x29A93, size: 0x8, addend: 0x0, symName: _stbi_convert_iphone_png_to_rgb_thread, symObjAddr: 0x1C5C4, symBinAddr: 0x10001F68C, symSize: 0x4C }
  - { offset: 0x29AB9, size: 0x8, addend: 0x0, symName: _stbi_info, symObjAddr: 0x1C610, symBinAddr: 0x10001F6D8, symSize: 0x8C }
  - { offset: 0x29B2E, size: 0x8, addend: 0x0, symName: _stbi_info_from_file, symObjAddr: 0x1C69C, symBinAddr: 0x10001F764, symSize: 0xB0 }
  - { offset: 0x29BB4, size: 0x8, addend: 0x0, symName: __ZL15stbi__info_mainP13stbi__contextPiS1_S1_, symObjAddr: 0x1C74C, symBinAddr: 0x10001F814, symSize: 0x1A8 }
  - { offset: 0x29C0F, size: 0x8, addend: 0x0, symName: __ZL15stbi__jpeg_infoP13stbi__contextPiS1_S1_, symObjAddr: 0x1C8F4, symBinAddr: 0x10001F9BC, symSize: 0x9C }
  - { offset: 0x29C88, size: 0x8, addend: 0x0, symName: __ZL14stbi__png_infoP13stbi__contextPiS1_S1_, symObjAddr: 0x1C990, symBinAddr: 0x10001FA58, symSize: 0x44 }
  - { offset: 0x29CF2, size: 0x8, addend: 0x0, symName: __ZL14stbi__gif_infoP13stbi__contextPiS1_S1_, symObjAddr: 0x1C9D4, symBinAddr: 0x10001FA9C, symSize: 0x3C }
  - { offset: 0x29D4D, size: 0x8, addend: 0x0, symName: __ZL14stbi__bmp_infoP13stbi__contextPiS1_S1_, symObjAddr: 0x1CA10, symBinAddr: 0x10001FAD8, symSize: 0x110 }
  - { offset: 0x29DC6, size: 0x8, addend: 0x0, symName: __ZL14stbi__psd_infoP13stbi__contextPiS1_S1_, symObjAddr: 0x1CB20, symBinAddr: 0x10001FBE8, symSize: 0x1A0 }
  - { offset: 0x29E4E, size: 0x8, addend: 0x0, symName: __ZL14stbi__pic_infoP13stbi__contextPiS1_S1_, symObjAddr: 0x1CCC0, symBinAddr: 0x10001FD88, symSize: 0x284 }
  - { offset: 0x29F09, size: 0x8, addend: 0x0, symName: __ZL14stbi__hdr_infoP13stbi__contextPiS1_S1_, symObjAddr: 0x1CF44, symBinAddr: 0x10002000C, symSize: 0x23C }
  - { offset: 0x29FA1, size: 0x8, addend: 0x0, symName: __ZL14stbi__tga_infoP13stbi__contextPiS1_S1_, symObjAddr: 0x1D180, symBinAddr: 0x100020248, symSize: 0x32C }
  - { offset: 0x2A074, size: 0x8, addend: 0x0, symName: __ZL19stbi__jpeg_info_rawP10stbi__jpegPiS1_S1_, symObjAddr: 0x1D4AC, symBinAddr: 0x100020574, symSize: 0xD8 }
  - { offset: 0x2A0CF, size: 0x8, addend: 0x0, symName: __ZL18stbi__png_info_rawP9stbi__pngPiS1_S1_, symObjAddr: 0x1D584, symBinAddr: 0x10002064C, symSize: 0xD0 }
  - { offset: 0x2A12A, size: 0x8, addend: 0x0, symName: __ZL18stbi__gif_info_rawP13stbi__contextPiS1_S1_, symObjAddr: 0x1D654, symBinAddr: 0x10002071C, symSize: 0xE0 }
  - { offset: 0x2A194, size: 0x8, addend: 0x0, symName: _stbi_is_16_bit, symObjAddr: 0x1D734, symBinAddr: 0x1000207FC, symSize: 0x74 }
  - { offset: 0x2A1DC, size: 0x8, addend: 0x0, symName: _stbi_is_16_bit_from_file, symObjAddr: 0x1D7A8, symBinAddr: 0x100020870, symSize: 0x98 }
  - { offset: 0x2A233, size: 0x8, addend: 0x0, symName: __ZL16stbi__is_16_mainP13stbi__context, symObjAddr: 0x1D840, symBinAddr: 0x100020908, symSize: 0x7C }
  - { offset: 0x2A261, size: 0x8, addend: 0x0, symName: __ZL14stbi__png_is16P13stbi__context, symObjAddr: 0x1D8BC, symBinAddr: 0x100020984, symSize: 0x78 }
  - { offset: 0x2A29E, size: 0x8, addend: 0x0, symName: __ZL14stbi__psd_is16P13stbi__context, symObjAddr: 0x1D934, symBinAddr: 0x1000209FC, symSize: 0xEC }
  - { offset: 0x2A2EA, size: 0x8, addend: 0x0, symName: __ZL14stbi__pnm_is16P13stbi__context, symObjAddr: 0x1DA20, symBinAddr: 0x100020AE8, symSize: 0x54 }
  - { offset: 0x2A318, size: 0x8, addend: 0x0, symName: _stbi_info_from_memory, symObjAddr: 0x1DA74, symBinAddr: 0x100020B3C, symSize: 0x94 }
  - { offset: 0x2A38D, size: 0x8, addend: 0x0, symName: _stbi_info_from_callbacks, symObjAddr: 0x1DB08, symBinAddr: 0x100020BD0, symSize: 0x94 }
  - { offset: 0x2A402, size: 0x8, addend: 0x0, symName: _stbi_is_16_bit_from_memory, symObjAddr: 0x1DB9C, symBinAddr: 0x100020C64, symSize: 0x7C }
  - { offset: 0x2A44A, size: 0x8, addend: 0x0, symName: _stbi_is_16_bit_from_callbacks, symObjAddr: 0x1DC18, symBinAddr: 0x100020CE0, symSize: 0x7C }
  - { offset: 0x2A492, size: 0x8, addend: 0x0, symName: __ZplRK6VectorS1_, symObjAddr: 0x1DC94, symBinAddr: 0x100020D5C, symSize: 0xC8 }
  - { offset: 0x2A4CD, size: 0x8, addend: 0x0, symName: __ZNK6VectorixEi, symObjAddr: 0x1DD5C, symBinAddr: 0x100020E24, symSize: 0x20 }
  - { offset: 0x2A501, size: 0x8, addend: 0x0, symName: __ZN6VectorC1Eddd, symObjAddr: 0x1DD7C, symBinAddr: 0x100020E44, symSize: 0x44 }
  - { offset: 0x2A555, size: 0x8, addend: 0x0, symName: __ZN6VectorC2Eddd, symObjAddr: 0x1DDC0, symBinAddr: 0x100020E88, symSize: 0x38 }
  - { offset: 0x2A5A8, size: 0x8, addend: 0x0, symName: __ZmiRK6VectorS1_, symObjAddr: 0x1DDF8, symBinAddr: 0x100020EC0, symSize: 0xC8 }
  - { offset: 0x2A5E2, size: 0x8, addend: 0x0, symName: __ZngRK6Vector, symObjAddr: 0x1DEC0, symBinAddr: 0x100020F88, symSize: 0x74 }
  - { offset: 0x2A60E, size: 0x8, addend: 0x0, symName: __ZmldRK6Vector, symObjAddr: 0x1DF34, symBinAddr: 0x100020FFC, symSize: 0xA4 }
  - { offset: 0x2A648, size: 0x8, addend: 0x0, symName: __ZmlRK6VectorS1_, symObjAddr: 0x1DFD8, symBinAddr: 0x1000210A0, symSize: 0xC8 }
  - { offset: 0x2A682, size: 0x8, addend: 0x0, symName: __ZmlRK6Vectord, symObjAddr: 0x1E0A0, symBinAddr: 0x100021168, symSize: 0x84 }
  - { offset: 0x2A6BC, size: 0x8, addend: 0x0, symName: __ZdvRK6Vectord, symObjAddr: 0x1E124, symBinAddr: 0x1000211EC, symSize: 0x84 }
  - { offset: 0x2A6F6, size: 0x8, addend: 0x0, symName: __Z3dotRK6VectorS1_, symObjAddr: 0x1E1A8, symBinAddr: 0x100021270, symSize: 0xB0 }
  - { offset: 0x2A730, size: 0x8, addend: 0x0, symName: __Z5crossRK6VectorS1_, symObjAddr: 0x1E258, symBinAddr: 0x100021320, symSize: 0x14C }
  - { offset: 0x2A76A, size: 0x8, addend: 0x0, symName: __Z8distanceRK6VectorS1_, symObjAddr: 0x1E3A4, symBinAddr: 0x10002146C, symSize: 0x40 }
  - { offset: 0x2A7A5, size: 0x8, addend: 0x0, symName: __ZNK6Vector4normEv, symObjAddr: 0x1E3E4, symBinAddr: 0x1000214AC, symSize: 0x28 }
  - { offset: 0x2A7CB, size: 0x8, addend: 0x0, symName: __ZNK6Vector5norm2Ev, symObjAddr: 0x1E40C, symBinAddr: 0x1000214D4, symSize: 0x38 }
  - { offset: 0x2A7F0, size: 0x8, addend: 0x0, symName: __Z22matrix_max_element_dimRK6Vector, symObjAddr: 0x1E444, symBinAddr: 0x10002150C, symSize: 0xD4 }
  - { offset: 0x2A81D, size: 0x8, addend: 0x0, symName: __ZNSt3__125uniform_real_distributionIdEC1B8ne200100Edd, symObjAddr: 0x1E518, symBinAddr: 0x1000215E0, symSize: 0x3C }
  - { offset: 0x2A863, size: 0x8, addend: 0x0, symName: __ZNSt3__125uniform_real_distributionIdEC2B8ne200100Edd, symObjAddr: 0x1E554, symBinAddr: 0x10002161C, symSize: 0x3C }
  - { offset: 0x2A8A9, size: 0x8, addend: 0x0, symName: __ZNSt3__125uniform_real_distributionIdE10param_typeC1B8ne200100Edd, symObjAddr: 0x1E590, symBinAddr: 0x100021658, symSize: 0x3C }
  - { offset: 0x2A8EF, size: 0x8, addend: 0x0, symName: __ZNSt3__125uniform_real_distributionIdE10param_typeC2B8ne200100Edd, symObjAddr: 0x1E5CC, symBinAddr: 0x100021694, symSize: 0x2C }
  - { offset: 0x2A935, size: 0x8, addend: 0x0, symName: __Z11boxMuller2DRNSt3__126linear_congruential_engineIjLj48271ELj0ELj2147483647EEEdRdS3_, symObjAddr: 0x1E5F8, symBinAddr: 0x1000216C0, symSize: 0xF8 }
  - { offset: 0x2A9AA, size: 0x8, addend: 0x0, symName: __ZNSt3__125uniform_real_distributionIdEclB8ne200100INS_26linear_congruential_engineIjLj48271ELj0ELj2147483647EEEEEdRT_, symObjAddr: 0x1E6F0, symBinAddr: 0x1000217B8, symSize: 0x30 }
  - { offset: 0x2A9E7, size: 0x8, addend: 0x0, symName: __ZNSt3__125uniform_real_distributionIdEclINS_26linear_congruential_engineIjLj48271ELj0ELj2147483647EEEEEdRT_RKNS1_10param_typeE, symObjAddr: 0x1E720, symBinAddr: 0x1000217E8, symSize: 0x6C }
  - { offset: 0x2AA32, size: 0x8, addend: 0x0, symName: __ZNKSt3__125uniform_real_distributionIdE10param_type1bB8ne200100Ev, symObjAddr: 0x1E78C, symBinAddr: 0x100021854, symSize: 0x18 }
  - { offset: 0x2AA58, size: 0x8, addend: 0x0, symName: __ZNKSt3__125uniform_real_distributionIdE10param_type1aB8ne200100Ev, symObjAddr: 0x1E7A4, symBinAddr: 0x10002186C, symSize: 0x18 }
  - { offset: 0x2AA7E, size: 0x8, addend: 0x0, symName: __ZNSt3__126linear_congruential_engineIjLj48271ELj0ELj2147483647EE3maxB8ne200100Ev, symObjAddr: 0x1E8D4, symBinAddr: 0x10002199C, symSize: 0x8 }
  - { offset: 0x2AA92, size: 0x8, addend: 0x0, symName: __ZNSt3__126linear_congruential_engineIjLj48271ELj0ELj2147483647EE3minB8ne200100Ev, symObjAddr: 0x1E8DC, symBinAddr: 0x1000219A4, symSize: 0x8 }
  - { offset: 0x2AAA6, size: 0x8, addend: 0x0, symName: __ZNSt3__126linear_congruential_engineIjLj48271ELj0ELj2147483647EEclB8ne200100Ev, symObjAddr: 0x1E8E4, symBinAddr: 0x1000219AC, symSize: 0x34 }
  - { offset: 0x2AACC, size: 0x8, addend: 0x0, symName: __ZNSt3__18__lce_taILy48271ELy0ELy2147483647ELy4294967295ELNS_14__lce_alg_typeE2EE4nextB8ne200100Ej, symObjAddr: 0x1E918, symBinAddr: 0x1000219E0, symSize: 0x84 }
  - { offset: 0x2AB43, size: 0x8, addend: 0x0, symName: __Z11boxMuller3DRNSt3__126linear_congruential_engineIjLj48271ELj0ELj2147483647EEERdS3_S3_, symObjAddr: 0x1E99C, symBinAddr: 0x100021A64, symSize: 0xD4 }
  - { offset: 0x2ABB1, size: 0x8, addend: 0x0, symName: __Z10random_cosRNSt3__126linear_congruential_engineIjLj48271ELj0ELj2147483647EEERK6Vector, symObjAddr: 0x1EA70, symBinAddr: 0x100021B38, symSize: 0x2A0 }
  - { offset: 0x2AC45, size: 0x8, addend: 0x0, symName: __Z3absB8ne200100d, symObjAddr: 0x1ED10, symBinAddr: 0x100021DD8, symSize: 0x18 }
  - { offset: 0x2AC72, size: 0x8, addend: 0x0, symName: __ZN6VectorixEi, symObjAddr: 0x1ED28, symBinAddr: 0x100021DF0, symSize: 0x20 }
  - { offset: 0x2ACA6, size: 0x8, addend: 0x0, symName: __ZN6Vector9normalizeEv, symObjAddr: 0x1ED48, symBinAddr: 0x100021E10, symSize: 0x60 }
  - { offset: 0x2AD06, size: 0x8, addend: 0x0, symName: __ZNSt3__110shared_ptrI8GeometryEC1B8ne200100I6SphereTnNS_9enable_ifIXsr17__compatible_withIT_S1_EE5valueEiE4typeELi0EEEONS0_IS6_EE, symObjAddr: 0x1EDF8, symBinAddr: 0x100021EC0, symSize: 0x34 }
  - { offset: 0x2AD4E, size: 0x8, addend: 0x0, symName: __ZNSt3__16vectorINS_10shared_ptrI8GeometryEENS_9allocatorIS3_EEEC1B8ne200100ESt16initializer_listIS3_E, symObjAddr: 0x1EE2C, symBinAddr: 0x100021EF4, symSize: 0x3C }
  - { offset: 0x2AD87, size: 0x8, addend: 0x0, symName: __ZNSt3__110shared_ptrI8GeometryED1B8ne200100Ev, symObjAddr: 0x1EE68, symBinAddr: 0x100021F30, symSize: 0x2C }
  - { offset: 0x2ADB1, size: 0x8, addend: 0x0, symName: __ZNSt3__110shared_ptrI6SphereED1B8ne200100Ev, symObjAddr: 0x1EE94, symBinAddr: 0x100021F5C, symSize: 0x2C }
  - { offset: 0x2ADDB, size: 0x8, addend: 0x0, symName: __ZNSt3__16vectorINS_10shared_ptrI8GeometryEENS_9allocatorIS3_EEED1B8ne200100Ev, symObjAddr: 0x1EEC0, symBinAddr: 0x100021F88, symSize: 0x2C }
  - { offset: 0x2AE05, size: 0x8, addend: 0x0, symName: __ZNSt3__19allocatorI6SphereEC1B8ne200100Ev, symObjAddr: 0x1EFC4, symBinAddr: 0x10002208C, symSize: 0x2C }
  - { offset: 0x2AE80, size: 0x8, addend: 0x0, symName: __ZNSt3__118__allocation_guardINS_9allocatorINS_20__shared_ptr_emplaceI6SphereNS1_IS3_EEEEEEEC1B8ne200100IS4_EET_m, symObjAddr: 0x1EFF0, symBinAddr: 0x1000220B8, symSize: 0x34 }
  - { offset: 0x2AECF, size: 0x8, addend: 0x0, symName: __ZNKSt3__118__allocation_guardINS_9allocatorINS_20__shared_ptr_emplaceI6SphereNS1_IS3_EEEEEEE5__getB8ne200100Ev, symObjAddr: 0x1F024, symBinAddr: 0x1000220EC, symSize: 0x18 }
  - { offset: 0x2AF01, size: 0x8, addend: 0x0, symName: __ZNSt3__120__shared_ptr_emplaceI6SphereNS_9allocatorIS1_EEEC1B8ne200100IJ6VectoriS6_ES3_TnNS_9enable_ifIXntsr7is_sameINT0_10value_typeENS_19__for_overwrite_tagEEE5valueEiE4typeELi0EEES3_DpOT_, symObjAddr: 0x1F03C, symBinAddr: 0x100022104, symSize: 0x44 }
  - { offset: 0x2AF87, size: 0x8, addend: 0x0, symName: __ZNSt3__118__allocation_guardINS_9allocatorINS_20__shared_ptr_emplaceI6SphereNS1_IS3_EEEEEEE13__release_ptrB8ne200100Ev, symObjAddr: 0x1F080, symBinAddr: 0x100022148, symSize: 0x24 }
  - { offset: 0x2AFBB, size: 0x8, addend: 0x0, symName: __ZNSt3__110shared_ptrI6SphereE27__create_with_control_blockB8ne200100IS1_NS_20__shared_ptr_emplaceIS1_NS_9allocatorIS1_EEEEEES2_PT_PT0_, symObjAddr: 0x1F0A4, symBinAddr: 0x10002216C, symSize: 0xA4 }
  - { offset: 0x2B010, size: 0x8, addend: 0x0, symName: __ZNSt3__120__shared_ptr_emplaceI6SphereNS_9allocatorIS1_EEE10__get_elemB8ne200100Ev, symObjAddr: 0x1F148, symBinAddr: 0x100022210, symSize: 0x28 }
  - { offset: 0x2B036, size: 0x8, addend: 0x0, symName: __ZNSt3__118__allocation_guardINS_9allocatorINS_20__shared_ptr_emplaceI6SphereNS1_IS3_EEEEEEED1B8ne200100Ev, symObjAddr: 0x1F170, symBinAddr: 0x100022238, symSize: 0x2C }
  - { offset: 0x2B060, size: 0x8, addend: 0x0, symName: __ZNSt3__118__allocation_guardINS_9allocatorINS_20__shared_ptr_emplaceI6SphereNS1_IS3_EEEEEEEC2B8ne200100IS4_EET_m, symObjAddr: 0x1F19C, symBinAddr: 0x100022264, symSize: 0x50 }
  - { offset: 0x2B0B5, size: 0x8, addend: 0x0, symName: __ZNSt3__19allocatorINS_20__shared_ptr_emplaceI6SphereNS0_IS2_EEEEEC1B8ne200100IS2_EERKNS0_IT_EE, symObjAddr: 0x1F1EC, symBinAddr: 0x1000222B4, symSize: 0x34 }
  - { offset: 0x2B0F3, size: 0x8, addend: 0x0, symName: __ZNSt3__116allocator_traitsINS_9allocatorINS_20__shared_ptr_emplaceI6SphereNS1_IS3_EEEEEEE8allocateB8ne200100ERS6_m, symObjAddr: 0x1F220, symBinAddr: 0x1000222E8, symSize: 0x2C }
  - { offset: 0x2B126, size: 0x8, addend: 0x0, symName: __ZNSt3__19allocatorINS_20__shared_ptr_emplaceI6SphereNS0_IS2_EEEEEC2B8ne200100IS2_EERKNS0_IT_EE, symObjAddr: 0x1F24C, symBinAddr: 0x100022314, symSize: 0x30 }
  - { offset: 0x2B164, size: 0x8, addend: 0x0, symName: __ZNSt3__116__non_trivial_ifILb1ENS_9allocatorINS_20__shared_ptr_emplaceI6SphereNS1_IS3_EEEEEEEC2B8ne200100Ev, symObjAddr: 0x1F27C, symBinAddr: 0x100022344, symSize: 0x14 }
  - { offset: 0x2B18E, size: 0x8, addend: 0x0, symName: __ZNSt3__19allocatorINS_20__shared_ptr_emplaceI6SphereNS0_IS2_EEEEE8allocateB8ne200100Em, symObjAddr: 0x1F290, symBinAddr: 0x100022358, symSize: 0x50 }
  - { offset: 0x2B1CD, size: 0x8, addend: 0x0, symName: __ZNSt3__116allocator_traitsINS_9allocatorINS_20__shared_ptr_emplaceI6SphereNS1_IS3_EEEEEEE8max_sizeB8ne200100IS6_TnNS_9enable_ifIXsr14__has_max_sizeIKT_EE5valueEiE4typeELi0EEEmRKS6_, symObjAddr: 0x1F2E0, symBinAddr: 0x1000223A8, symSize: 0x24 }
  - { offset: 0x2B200, size: 0x8, addend: 0x0, symName: __ZNKSt3__19allocatorINS_20__shared_ptr_emplaceI6SphereNS0_IS2_EEEEE8max_sizeB8ne200100Ev, symObjAddr: 0x1F3A8, symBinAddr: 0x100022470, symSize: 0x20 }
  - { offset: 0x2B226, size: 0x8, addend: 0x0, symName: __ZNSt3__120__shared_ptr_emplaceI6SphereNS_9allocatorIS1_EEEC2B8ne200100IJ6VectoriS6_ES3_TnNS_9enable_ifIXntsr7is_sameINT0_10value_typeENS_19__for_overwrite_tagEEE5valueEiE4typeELi0EEES3_DpOT_, symObjAddr: 0x1F434, symBinAddr: 0x1000224FC, symSize: 0xCC }
  - { offset: 0x2B2CB, size: 0x8, addend: 0x0, symName: __ZNSt3__119__shared_weak_countC2B8ne200100El, symObjAddr: 0x1F500, symBinAddr: 0x1000225C8, symSize: 0x4C }
  - { offset: 0x2B303, size: 0x8, addend: 0x0, symName: __ZNSt3__120__shared_ptr_emplaceI6SphereNS_9allocatorIS1_EEE8_StorageC1B8ne200100EOS3_, symObjAddr: 0x1F54C, symBinAddr: 0x100022614, symSize: 0x34 }
  - { offset: 0x2B33B, size: 0x8, addend: 0x0, symName: __ZNSt3__120__shared_ptr_emplaceI6SphereNS_9allocatorIS1_EEE11__get_allocB8ne200100Ev, symObjAddr: 0x1F580, symBinAddr: 0x100022648, symSize: 0x28 }
  - { offset: 0x2B367, size: 0x8, addend: 0x0, symName: __ZNSt3__116allocator_traitsINS_9allocatorI6SphereEEE9constructB8ne200100IS2_J6VectoriS6_ETnNS_9enable_ifIXsr15__has_constructIS3_PT_DpT0_EE5valueEiE4typeELi0EEEvRS3_S9_DpOSA_, symObjAddr: 0x1F5A8, symBinAddr: 0x100022670, symSize: 0x44 }
  - { offset: 0x2B3EB, size: 0x8, addend: 0x0, symName: __ZNSt3__120__shared_ptr_emplaceI6SphereNS_9allocatorIS1_EEE8_StorageD1B8ne200100Ev, symObjAddr: 0x1F5EC, symBinAddr: 0x1000226B4, symSize: 0x2C }
  - { offset: 0x2B415, size: 0x8, addend: 0x0, symName: __ZNSt3__120__shared_ptr_emplaceI6SphereNS_9allocatorIS1_EEED1Ev, symObjAddr: 0x1F618, symBinAddr: 0x1000226E0, symSize: 0x2C }
  - { offset: 0x2B441, size: 0x8, addend: 0x0, symName: __ZNSt3__120__shared_ptr_emplaceI6SphereNS_9allocatorIS1_EEED0Ev, symObjAddr: 0x1F644, symBinAddr: 0x10002270C, symSize: 0x34 }
  - { offset: 0x2B46D, size: 0x8, addend: 0x0, symName: __ZNSt3__120__shared_ptr_emplaceI6SphereNS_9allocatorIS1_EEE16__on_zero_sharedEv, symObjAddr: 0x1F678, symBinAddr: 0x100022740, symSize: 0x24 }
  - { offset: 0x2B493, size: 0x8, addend: 0x0, symName: __ZNSt3__120__shared_ptr_emplaceI6SphereNS_9allocatorIS1_EEE21__on_zero_shared_weakEv, symObjAddr: 0x1F69C, symBinAddr: 0x100022764, symSize: 0x5C }
  - { offset: 0x2B4D2, size: 0x8, addend: 0x0, symName: __ZNSt3__114__shared_countC2B8ne200100El, symObjAddr: 0x1F6F8, symBinAddr: 0x1000227C0, symSize: 0x30 }
  - { offset: 0x2B50A, size: 0x8, addend: 0x0, symName: __ZNSt3__120__shared_ptr_emplaceI6SphereNS_9allocatorIS1_EEE8_StorageC2B8ne200100EOS3_, symObjAddr: 0x1F728, symBinAddr: 0x1000227F0, symSize: 0x30 }
  - { offset: 0x2B542, size: 0x8, addend: 0x0, symName: __ZNSt3__120__shared_ptr_emplaceI6SphereNS_9allocatorIS1_EEE8_Storage11__get_allocB8ne200100Ev, symObjAddr: 0x1F758, symBinAddr: 0x100022820, symSize: 0x14 }
  - { offset: 0x2B568, size: 0x8, addend: 0x0, symName: __ZNSt3__19allocatorI6SphereE9constructB8ne200100IS1_J6VectoriS4_EEEvPT_DpOT0_, symObjAddr: 0x1F76C, symBinAddr: 0x100022834, symSize: 0x60 }
  - { offset: 0x2B5E4, size: 0x8, addend: 0x0, symName: __ZN6SphereC1ERK6VectordS2_bbd, symObjAddr: 0x1F7CC, symBinAddr: 0x100022894, symSize: 0x64 }
  - { offset: 0x2B662, size: 0x8, addend: 0x0, symName: __ZN6SphereC2ERK6VectordS2_bbd, symObjAddr: 0x1F830, symBinAddr: 0x1000228F8, symSize: 0x140 }
  - { offset: 0x2B6E0, size: 0x8, addend: 0x0, symName: __ZN8GeometryC2Ev, symObjAddr: 0x1F970, symBinAddr: 0x100022A38, symSize: 0x5C }
  - { offset: 0x2B70C, size: 0x8, addend: 0x0, symName: __ZN8GeometryD2Ev, symObjAddr: 0x1F9CC, symBinAddr: 0x100022A94, symSize: 0x14 }
  - { offset: 0x2B736, size: 0x8, addend: 0x0, symName: __ZN6SphereD1Ev, symObjAddr: 0x1F9E0, symBinAddr: 0x100022AA8, symSize: 0x2C }
  - { offset: 0x2B762, size: 0x8, addend: 0x0, symName: __ZN6SphereD0Ev, symObjAddr: 0x1FA0C, symBinAddr: 0x100022AD4, symSize: 0x34 }
  - { offset: 0x2B78E, size: 0x8, addend: 0x0, symName: __ZNK6Sphere16findIntersectionERK3Ray, symObjAddr: 0x1FA40, symBinAddr: 0x100022B08, symSize: 0x330 }
  - { offset: 0x2B846, size: 0x8, addend: 0x0, symName: __ZN8GeometryD1Ev, symObjAddr: 0x1FD70, symBinAddr: 0x100022E38, symSize: 0x14 }
  - { offset: 0x2B870, size: 0x8, addend: 0x0, symName: __ZN8GeometryD0Ev, symObjAddr: 0x1FD84, symBinAddr: 0x100022E4C, symSize: 0xC }
  - { offset: 0x2B89A, size: 0x8, addend: 0x0, symName: __ZN6SphereD2Ev, symObjAddr: 0x1FD90, symBinAddr: 0x100022E58, symSize: 0x2C }
  - { offset: 0x2B8C6, size: 0x8, addend: 0x0, symName: __ZN12IntersectionC1Ebbd6VectorS0_S0_, symObjAddr: 0x1FDBC, symBinAddr: 0x100022E84, symSize: 0xB0 }
  - { offset: 0x2B944, size: 0x8, addend: 0x0, symName: __ZNK3Ray9getOriginEv, symObjAddr: 0x1FE6C, symBinAddr: 0x100022F34, symSize: 0x14 }
  - { offset: 0x2B96A, size: 0x8, addend: 0x0, symName: __ZNK3Ray12getDirectionEv, symObjAddr: 0x1FE80, symBinAddr: 0x100022F48, symSize: 0x18 }
  - { offset: 0x2B990, size: 0x8, addend: 0x0, symName: __ZN12IntersectionC2Ebbd6VectorS0_S0_, symObjAddr: 0x1FE98, symBinAddr: 0x100022F60, symSize: 0xA4 }
  - { offset: 0x2BA0F, size: 0x8, addend: 0x0, symName: __ZNSt3__120__shared_ptr_emplaceI6SphereNS_9allocatorIS1_EEE8_StorageD2B8ne200100Ev, symObjAddr: 0x1FF3C, symBinAddr: 0x100023004, symSize: 0x2C }
  - { offset: 0x2BA39, size: 0x8, addend: 0x0, symName: __ZNSt3__120__shared_ptr_emplaceI6SphereNS_9allocatorIS1_EEED2Ev, symObjAddr: 0x1FF68, symBinAddr: 0x100023030, symSize: 0x48 }
  - { offset: 0x2BA65, size: 0x8, addend: 0x0, symName: __ZNSt3__120__shared_ptr_emplaceI6SphereNS_9allocatorIS1_EEE21__on_zero_shared_implB8ne200100IS3_TnNS_9enable_ifIXntsr7is_sameINT_10value_typeENS_19__for_overwrite_tagEEE5valueEiE4typeELi0EEEvv, symObjAddr: 0x1FFB0, symBinAddr: 0x100023078, symSize: 0x44 }
  - { offset: 0x2BAB3, size: 0x8, addend: 0x0, symName: __ZNSt3__116allocator_traitsINS_9allocatorI6SphereEEE7destroyB8ne200100IS2_TnNS_9enable_ifIXsr13__has_destroyIS3_PT_EE5valueEiE4typeELi0EEEvRS3_S8_, symObjAddr: 0x1FFF4, symBinAddr: 0x1000230BC, symSize: 0x2C }
  - { offset: 0x2BAF5, size: 0x8, addend: 0x0, symName: __ZNSt3__19allocatorI6SphereE7destroyB8ne200100EPS1_, symObjAddr: 0x20030, symBinAddr: 0x1000230F8, symSize: 0x30 }
  - { offset: 0x2BB29, size: 0x8, addend: 0x0, symName: __ZNSt3__116allocator_traitsINS_9allocatorINS_20__shared_ptr_emplaceI6SphereNS1_IS3_EEEEEEE10deallocateB8ne200100ERS6_PS5_m, symObjAddr: 0x20060, symBinAddr: 0x100023128, symSize: 0x34 }
  - { offset: 0x2BB6B, size: 0x8, addend: 0x0, symName: __ZNSt3__114pointer_traitsIPNS_20__shared_ptr_emplaceI6SphereNS_9allocatorIS2_EEEEE10pointer_toB8ne200100ERS5_, symObjAddr: 0x20094, symBinAddr: 0x10002315C, symSize: 0x14 }
  - { offset: 0x2BB8E, size: 0x8, addend: 0x0, symName: __ZNSt3__19allocatorINS_20__shared_ptr_emplaceI6SphereNS0_IS2_EEEEE10deallocateB8ne200100EPS4_m, symObjAddr: 0x200A8, symBinAddr: 0x100023170, symSize: 0x34 }
  - { offset: 0x2BBD0, size: 0x8, addend: 0x0, symName: __ZNSt3__110shared_ptrI6SphereEC1B8ne200100Ev, symObjAddr: 0x201AC, symBinAddr: 0x100023274, symSize: 0x2C }
  - { offset: 0x2BBFA, size: 0x8, addend: 0x0, symName: __ZNSt3__110shared_ptrI6SphereE18__enable_weak_thisB8ne200100Ez, symObjAddr: 0x201D8, symBinAddr: 0x1000232A0, symSize: 0x10 }
  - { offset: 0x2BC21, size: 0x8, addend: 0x0, symName: __ZNSt3__110shared_ptrI6SphereEC2B8ne200100Ev, symObjAddr: 0x201E8, symBinAddr: 0x1000232B0, symSize: 0x1C }
  - { offset: 0x2BC4B, size: 0x8, addend: 0x0, symName: __ZNSt3__120__shared_ptr_emplaceI6SphereNS_9allocatorIS1_EEE8_Storage10__get_elemB8ne200100Ev, symObjAddr: 0x20204, symBinAddr: 0x1000232CC, symSize: 0x14 }
  - { offset: 0x2BC71, size: 0x8, addend: 0x0, symName: __ZNSt3__118__allocation_guardINS_9allocatorINS_20__shared_ptr_emplaceI6SphereNS1_IS3_EEEEEEED2B8ne200100Ev, symObjAddr: 0x20218, symBinAddr: 0x1000232E0, symSize: 0x2C }
  - { offset: 0x2BC9B, size: 0x8, addend: 0x0, symName: __ZNSt3__118__allocation_guardINS_9allocatorINS_20__shared_ptr_emplaceI6SphereNS1_IS3_EEEEEEE9__destroyB8ne200100Ev, symObjAddr: 0x20244, symBinAddr: 0x10002330C, symSize: 0x44 }
  - { offset: 0x2BCC1, size: 0x8, addend: 0x0, symName: __ZNSt3__19allocatorI6SphereEC2B8ne200100Ev, symObjAddr: 0x20288, symBinAddr: 0x100023350, symSize: 0x2C }
  - { offset: 0x2BCEB, size: 0x8, addend: 0x0, symName: __ZNSt3__116__non_trivial_ifILb1ENS_9allocatorI6SphereEEEC2B8ne200100Ev, symObjAddr: 0x202B4, symBinAddr: 0x10002337C, symSize: 0x14 }
  - { offset: 0x2BD15, size: 0x8, addend: 0x0, symName: __ZNSt3__110shared_ptrI8GeometryEC2B8ne200100I6SphereTnNS_9enable_ifIXsr17__compatible_withIT_S1_EE5valueEiE4typeELi0EEEONS0_IS6_EE, symObjAddr: 0x202C8, symBinAddr: 0x100023390, symSize: 0x40 }
  - { offset: 0x2BD5D, size: 0x8, addend: 0x0, symName: __ZNSt3__16vectorINS_10shared_ptrI8GeometryEENS_9allocatorIS3_EEEC2B8ne200100ESt16initializer_listIS3_E, symObjAddr: 0x20308, symBinAddr: 0x1000233D0, symSize: 0x84 }
  - { offset: 0x2BD96, size: 0x8, addend: 0x0, symName: __ZNSt3__19allocatorINS_10shared_ptrI8GeometryEEEC1B8ne200100Ev, symObjAddr: 0x2038C, symBinAddr: 0x100023454, symSize: 0x2C }
  - { offset: 0x2BDC0, size: 0x8, addend: 0x0, symName: __ZNSt3__16vectorINS_10shared_ptrI8GeometryEENS_9allocatorIS3_EEE16__init_with_sizeB8ne200100IPKS3_S9_EEvT_T0_m, symObjAddr: 0x203B8, symBinAddr: 0x100023480, symSize: 0xB4 }
  - { offset: 0x2BE34, size: 0x8, addend: 0x0, symName: __ZNKSt16initializer_listINSt3__110shared_ptrI8GeometryEEE5beginB8ne200100Ev, symObjAddr: 0x2046C, symBinAddr: 0x100023534, symSize: 0x18 }
  - { offset: 0x2BE5A, size: 0x8, addend: 0x0, symName: __ZNKSt16initializer_listINSt3__110shared_ptrI8GeometryEEE3endB8ne200100Ev, symObjAddr: 0x20484, symBinAddr: 0x10002354C, symSize: 0x20 }
  - { offset: 0x2BE80, size: 0x8, addend: 0x0, symName: __ZNKSt16initializer_listINSt3__110shared_ptrI8GeometryEEE4sizeB8ne200100Ev, symObjAddr: 0x204A4, symBinAddr: 0x10002356C, symSize: 0x18 }
  - { offset: 0x2BEA6, size: 0x8, addend: 0x0, symName: __ZNSt3__19allocatorINS_10shared_ptrI8GeometryEEEC2B8ne200100Ev, symObjAddr: 0x204BC, symBinAddr: 0x100023584, symSize: 0x2C }
  - { offset: 0x2BED0, size: 0x8, addend: 0x0, symName: __ZNSt3__116__non_trivial_ifILb1ENS_9allocatorINS_10shared_ptrI8GeometryEEEEEC2B8ne200100Ev, symObjAddr: 0x204E8, symBinAddr: 0x1000235B0, symSize: 0x14 }
  - { offset: 0x2BEFA, size: 0x8, addend: 0x0, symName: __ZNSt3__16vectorINS_10shared_ptrI8GeometryEENS_9allocatorIS3_EEE16__destroy_vectorC1B8ne200100ERS6_, symObjAddr: 0x2053C, symBinAddr: 0x100023604, symSize: 0x34 }
  - { offset: 0x2BF32, size: 0x8, addend: 0x0, symName: __ZNSt3__16vectorINS_10shared_ptrI8GeometryEENS_9allocatorIS3_EEE11__vallocateB8ne200100Em, symObjAddr: 0x20570, symBinAddr: 0x100023638, symSize: 0x8C }
  - { offset: 0x2BF76, size: 0x8, addend: 0x0, symName: __ZNSt3__16vectorINS_10shared_ptrI8GeometryEENS_9allocatorIS3_EEE18__construct_at_endIPKS3_S9_EEvT_T0_m, symObjAddr: 0x205FC, symBinAddr: 0x1000236C4, symSize: 0x88 }
  - { offset: 0x2BFEA, size: 0x8, addend: 0x0, symName: __ZNSt3__128__exception_guard_exceptionsINS_6vectorINS_10shared_ptrI8GeometryEENS_9allocatorIS4_EEE16__destroy_vectorEE10__completeB8ne200100Ev, symObjAddr: 0x20684, symBinAddr: 0x10002374C, symSize: 0x1C }
  - { offset: 0x2C010, size: 0x8, addend: 0x0, symName: __ZNSt3__128__exception_guard_exceptionsINS_6vectorINS_10shared_ptrI8GeometryEENS_9allocatorIS4_EEE16__destroy_vectorEED1B8ne200100Ev, symObjAddr: 0x206A0, symBinAddr: 0x100023768, symSize: 0x2C }
  - { offset: 0x2C03A, size: 0x8, addend: 0x0, symName: __ZNSt3__128__exception_guard_exceptionsINS_6vectorINS_10shared_ptrI8GeometryEENS_9allocatorIS4_EEE16__destroy_vectorEEC1B8ne200100ES8_, symObjAddr: 0x206CC, symBinAddr: 0x100023794, symSize: 0x34 }
  - { offset: 0x2C072, size: 0x8, addend: 0x0, symName: __ZNSt3__128__exception_guard_exceptionsINS_6vectorINS_10shared_ptrI8GeometryEENS_9allocatorIS4_EEE16__destroy_vectorEEC2B8ne200100ES8_, symObjAddr: 0x20700, symBinAddr: 0x1000237C8, symSize: 0x24 }
  - { offset: 0x2C0AA, size: 0x8, addend: 0x0, symName: __ZNSt3__16vectorINS_10shared_ptrI8GeometryEENS_9allocatorIS3_EEE16__destroy_vectorC2B8ne200100ERS6_, symObjAddr: 0x20724, symBinAddr: 0x1000237EC, symSize: 0x20 }
  - { offset: 0x2C0E2, size: 0x8, addend: 0x0, symName: __ZNKSt3__16vectorINS_10shared_ptrI8GeometryEENS_9allocatorIS3_EEE8max_sizeB8ne200100Ev, symObjAddr: 0x20744, symBinAddr: 0x10002380C, symSize: 0x5C }
  - { offset: 0x2C108, size: 0x8, addend: 0x0, symName: __ZNSt3__16vectorINS_10shared_ptrI8GeometryEENS_9allocatorIS3_EEE20__throw_length_errorB8ne200100Ev, symObjAddr: 0x207A0, symBinAddr: 0x100023868, symSize: 0x14 }
  - { offset: 0x2C11C, size: 0x8, addend: 0x0, symName: __ZNKSt3__16vectorINS_10shared_ptrI8GeometryEENS_9allocatorIS3_EEE14__annotate_newB8ne200100Em, symObjAddr: 0x207F4, symBinAddr: 0x1000238BC, symSize: 0x14 }
  - { offset: 0x2C15C, size: 0x8, addend: 0x0, symName: __ZNSt3__116allocator_traitsINS_9allocatorINS_10shared_ptrI8GeometryEEEEE8max_sizeB8ne200100IS5_TnNS_9enable_ifIXsr14__has_max_sizeIKT_EE5valueEiE4typeELi0EEEmRKS5_, symObjAddr: 0x20834, symBinAddr: 0x1000238FC, symSize: 0x24 }
  - { offset: 0x2C18F, size: 0x8, addend: 0x0, symName: __ZNSt3__114numeric_limitsIlE3maxB8ne200100Ev, symObjAddr: 0x20858, symBinAddr: 0x100023920, symSize: 0x14 }
  - { offset: 0x2C1B8, size: 0x8, addend: 0x0, symName: __ZNKSt3__16__lessIvvEclB8ne200100ImmEEbRKT_RKT0_, symObjAddr: 0x208C0, symBinAddr: 0x100023988, symSize: 0x30 }
  - { offset: 0x2C20C, size: 0x8, addend: 0x0, symName: __ZNKSt3__19allocatorINS_10shared_ptrI8GeometryEEE8max_sizeB8ne200100Ev, symObjAddr: 0x208F0, symBinAddr: 0x1000239B8, symSize: 0x14 }
  - { offset: 0x2C232, size: 0x8, addend: 0x0, symName: __ZNSt3__123__libcpp_numeric_limitsIlLb1EE3maxB8ne200100Ev, symObjAddr: 0x20904, symBinAddr: 0x1000239CC, symSize: 0x8 }
  - { offset: 0x2C246, size: 0x8, addend: 0x0, symName: __ZNSt12length_errorC1B8ne200100EPKc, symObjAddr: 0x20970, symBinAddr: 0x100023A38, symSize: 0x34 }
  - { offset: 0x2C27E, size: 0x8, addend: 0x0, symName: __ZNSt12length_errorC2B8ne200100EPKc, symObjAddr: 0x209A4, symBinAddr: 0x100023A6C, symSize: 0x44 }
  - { offset: 0x2C2B6, size: 0x8, addend: 0x0, symName: __ZNSt3__19allocatorINS_10shared_ptrI8GeometryEEE8allocateB8ne200100Em, symObjAddr: 0x209E8, symBinAddr: 0x100023AB0, symSize: 0x50 }
  - { offset: 0x2C305, size: 0x8, addend: 0x0, symName: __ZNSt3__16vectorINS_10shared_ptrI8GeometryEENS_9allocatorIS3_EEE21_ConstructTransactionC1B8ne200100ERS6_m, symObjAddr: 0x20AA4, symBinAddr: 0x100023B6C, symSize: 0x3C }
  - { offset: 0x2C34D, size: 0x8, addend: 0x0, symName: __ZNSt3__16vectorINS_10shared_ptrI8GeometryEENS_9allocatorIS3_EEE21_ConstructTransactionD1B8ne200100Ev, symObjAddr: 0x20B60, symBinAddr: 0x100023C28, symSize: 0x2C }
  - { offset: 0x2C377, size: 0x8, addend: 0x0, symName: __ZNSt3__16vectorINS_10shared_ptrI8GeometryEENS_9allocatorIS3_EEE21_ConstructTransactionC2B8ne200100ERS6_m, symObjAddr: 0x20B8C, symBinAddr: 0x100023C54, symSize: 0x44 }
  - { offset: 0x2C3E1, size: 0x8, addend: 0x0, symName: __ZNSt3__14pairIPKNS_10shared_ptrI8GeometryEES5_EC1B8ne200100IS5_S5_TnNS_9enable_ifIXclsr10_CheckArgsE23__is_pair_constructibleIT_T0_EEEiE4typeELi0EEEOS9_OSA_, symObjAddr: 0x20DDC, symBinAddr: 0x100023EA4, symSize: 0x3C }
  - { offset: 0x2C43F, size: 0x8, addend: 0x0, symName: __ZNSt3__14pairIPKNS_10shared_ptrI8GeometryEES5_EC2B8ne200100IS5_S5_TnNS_9enable_ifIXclsr10_CheckArgsE23__is_pair_constructibleIT_T0_EEEiE4typeELi0EEEOS9_OSA_, symObjAddr: 0x20E18, symBinAddr: 0x100023EE0, symSize: 0x34 }
  - { offset: 0x2C49D, size: 0x8, addend: 0x0, symName: __ZNSt3__118__unwrap_iter_implIPKNS_10shared_ptrI8GeometryEELb1EE8__unwrapB8ne200100ES5_, symObjAddr: 0x20E4C, symBinAddr: 0x100023F14, symSize: 0x24 }
  - { offset: 0x2C4C0, size: 0x8, addend: 0x0, symName: __ZNSt3__129_AllocatorDestroyRangeReverseINS_9allocatorINS_10shared_ptrI8GeometryEEEEPS4_EC1B8ne200100ERS5_RS6_S9_, symObjAddr: 0x20ED0, symBinAddr: 0x100023F98, symSize: 0x44 }
  - { offset: 0x2C517, size: 0x8, addend: 0x0, symName: __ZNSt3__116allocator_traitsINS_9allocatorINS_10shared_ptrI8GeometryEEEEE9constructB8ne200100IS4_JRKS4_ETnNS_9enable_ifIXsr15__has_constructIS5_PT_DpT0_EE5valueEiE4typeELi0EEEvRS5_SC_DpOSD_, symObjAddr: 0x20F14, symBinAddr: 0x100023FDC, symSize: 0x34 }
  - { offset: 0x2C573, size: 0x8, addend: 0x0, symName: __ZNSt3__128__exception_guard_exceptionsINS_29_AllocatorDestroyRangeReverseINS_9allocatorINS_10shared_ptrI8GeometryEEEEPS5_EEE10__completeB8ne200100Ev, symObjAddr: 0x20F5C, symBinAddr: 0x100024024, symSize: 0x1C }
  - { offset: 0x2C599, size: 0x8, addend: 0x0, symName: __ZNSt3__128__exception_guard_exceptionsINS_29_AllocatorDestroyRangeReverseINS_9allocatorINS_10shared_ptrI8GeometryEEEEPS5_EEED1B8ne200100Ev, symObjAddr: 0x20F78, symBinAddr: 0x100024040, symSize: 0x2C }
  - { offset: 0x2C5C3, size: 0x8, addend: 0x0, symName: __ZNSt3__128__exception_guard_exceptionsINS_29_AllocatorDestroyRangeReverseINS_9allocatorINS_10shared_ptrI8GeometryEEEEPS5_EEEC1B8ne200100ES8_, symObjAddr: 0x20FA4, symBinAddr: 0x10002406C, symSize: 0x34 }
  - { offset: 0x2C5FC, size: 0x8, addend: 0x0, symName: __ZNSt3__128__exception_guard_exceptionsINS_29_AllocatorDestroyRangeReverseINS_9allocatorINS_10shared_ptrI8GeometryEEEEPS5_EEEC2B8ne200100ES8_, symObjAddr: 0x20FD8, symBinAddr: 0x1000240A0, symSize: 0x30 }
  - { offset: 0x2C635, size: 0x8, addend: 0x0, symName: __ZNSt3__129_AllocatorDestroyRangeReverseINS_9allocatorINS_10shared_ptrI8GeometryEEEEPS4_EC2B8ne200100ERS5_RS6_S9_, symObjAddr: 0x21008, symBinAddr: 0x1000240D0, symSize: 0x38 }
  - { offset: 0x2C68C, size: 0x8, addend: 0x0, symName: __ZNSt3__19allocatorINS_10shared_ptrI8GeometryEEE9constructB8ne200100IS3_JRKS3_EEEvPT_DpOT0_, symObjAddr: 0x21040, symBinAddr: 0x100024108, symSize: 0x30 }
  - { offset: 0x2C6E2, size: 0x8, addend: 0x0, symName: __ZNSt3__110shared_ptrI8GeometryEC1B8ne200100ERKS2_, symObjAddr: 0x21070, symBinAddr: 0x100024138, symSize: 0x34 }
  - { offset: 0x2C71B, size: 0x8, addend: 0x0, symName: __ZNSt3__110shared_ptrI8GeometryEC2B8ne200100ERKS2_, symObjAddr: 0x210A4, symBinAddr: 0x10002416C, symSize: 0x68 }
  - { offset: 0x2C754, size: 0x8, addend: 0x0, symName: __ZNSt3__119__shared_weak_count12__add_sharedB8ne200100Ev, symObjAddr: 0x2110C, symBinAddr: 0x1000241D4, symSize: 0x24 }
  - { offset: 0x2C77A, size: 0x8, addend: 0x0, symName: __ZNSt3__114__shared_count12__add_sharedB8ne200100Ev, symObjAddr: 0x21130, symBinAddr: 0x1000241F8, symSize: 0x28 }
  - { offset: 0x2C7A0, size: 0x8, addend: 0x0, symName: __ZNSt3__128__exception_guard_exceptionsINS_29_AllocatorDestroyRangeReverseINS_9allocatorINS_10shared_ptrI8GeometryEEEEPS5_EEED2B8ne200100Ev, symObjAddr: 0x21188, symBinAddr: 0x100024250, symSize: 0x50 }
  - { offset: 0x2C7CA, size: 0x8, addend: 0x0, symName: __ZNKSt3__129_AllocatorDestroyRangeReverseINS_9allocatorINS_10shared_ptrI8GeometryEEEEPS4_EclB8ne200100Ev, symObjAddr: 0x211D8, symBinAddr: 0x1000242A0, symSize: 0x68 }
  - { offset: 0x2C7F0, size: 0x8, addend: 0x0, symName: __ZNSt3__116reverse_iteratorIPNS_10shared_ptrI8GeometryEEEC1B8ne200100ES4_, symObjAddr: 0x212B0, symBinAddr: 0x100024378, symSize: 0x34 }
  - { offset: 0x2C828, size: 0x8, addend: 0x0, symName: __ZNSt3__116allocator_traitsINS_9allocatorINS_10shared_ptrI8GeometryEEEEE7destroyB8ne200100IS4_TnNS_9enable_ifIXsr13__has_destroyIS5_PT_EE5valueEiE4typeELi0EEEvRS5_SA_, symObjAddr: 0x21328, symBinAddr: 0x1000243F0, symSize: 0x2C }
  - { offset: 0x2C86A, size: 0x8, addend: 0x0, symName: __ZNSt3__116reverse_iteratorIPNS_10shared_ptrI8GeometryEEEppB8ne200100Ev, symObjAddr: 0x21378, symBinAddr: 0x100024440, symSize: 0x20 }
  - { offset: 0x2C890, size: 0x8, addend: 0x0, symName: __ZNKSt3__116reverse_iteratorIPNS_10shared_ptrI8GeometryEEE4baseB8ne200100Ev, symObjAddr: 0x21398, symBinAddr: 0x100024460, symSize: 0x18 }
  - { offset: 0x2C8B6, size: 0x8, addend: 0x0, symName: __ZNSt3__19allocatorINS_10shared_ptrI8GeometryEEE7destroyB8ne200100EPS3_, symObjAddr: 0x213B0, symBinAddr: 0x100024478, symSize: 0x28 }
  - { offset: 0x2C8F0, size: 0x8, addend: 0x0, symName: __ZNSt3__119__to_address_helperINS_16reverse_iteratorIPNS_10shared_ptrI8GeometryEEEEvE6__callB8ne200100ERKS6_, symObjAddr: 0x213D8, symBinAddr: 0x1000244A0, symSize: 0x38 }
  - { offset: 0x2C913, size: 0x8, addend: 0x0, symName: __ZNKSt3__116reverse_iteratorIPNS_10shared_ptrI8GeometryEEEptB8ne200100Ev, symObjAddr: 0x21410, symBinAddr: 0x1000244D8, symSize: 0x24 }
  - { offset: 0x2C939, size: 0x8, addend: 0x0, symName: __ZNKSt3__116reverse_iteratorIPNS_10shared_ptrI8GeometryEEEdeB8ne200100Ev, symObjAddr: 0x21434, symBinAddr: 0x1000244FC, symSize: 0x28 }
  - { offset: 0x2C96D, size: 0x8, addend: 0x0, symName: __ZNSt3__116reverse_iteratorIPNS_10shared_ptrI8GeometryEEEC2B8ne200100ES4_, symObjAddr: 0x2145C, symBinAddr: 0x100024524, symSize: 0x28 }
  - { offset: 0x2C9A5, size: 0x8, addend: 0x0, symName: __ZNSt3__118__unwrap_iter_implIPNS_10shared_ptrI8GeometryEELb1EE8__unwrapB8ne200100ES4_, symObjAddr: 0x21484, symBinAddr: 0x10002454C, symSize: 0x24 }
  - { offset: 0x2C9C8, size: 0x8, addend: 0x0, symName: __ZNSt3__118__unwrap_iter_implIPNS_10shared_ptrI8GeometryEELb1EE8__rewrapB8ne200100ES4_S4_, symObjAddr: 0x214A8, symBinAddr: 0x100024570, symSize: 0x50 }
  - { offset: 0x2C9F9, size: 0x8, addend: 0x0, symName: __ZNSt3__16vectorINS_10shared_ptrI8GeometryEENS_9allocatorIS3_EEE21_ConstructTransactionD2B8ne200100Ev, symObjAddr: 0x214F8, symBinAddr: 0x1000245C0, symSize: 0x20 }
  - { offset: 0x2CA23, size: 0x8, addend: 0x0, symName: __ZNSt3__128__exception_guard_exceptionsINS_6vectorINS_10shared_ptrI8GeometryEENS_9allocatorIS4_EEE16__destroy_vectorEED2B8ne200100Ev, symObjAddr: 0x21518, symBinAddr: 0x1000245E0, symSize: 0x50 }
  - { offset: 0x2CA4D, size: 0x8, addend: 0x0, symName: __ZNSt3__16vectorINS_10shared_ptrI8GeometryEENS_9allocatorIS3_EEE16__destroy_vectorclB8ne200100Ev, symObjAddr: 0x21568, symBinAddr: 0x100024630, symSize: 0x80 }
  - { offset: 0x2CA73, size: 0x8, addend: 0x0, symName: __ZNSt3__16vectorINS_10shared_ptrI8GeometryEENS_9allocatorIS3_EEE5clearB8ne200100Ev, symObjAddr: 0x215E8, symBinAddr: 0x1000246B0, symSize: 0x48 }
  - { offset: 0x2CAA8, size: 0x8, addend: 0x0, symName: __ZNKSt3__16vectorINS_10shared_ptrI8GeometryEENS_9allocatorIS3_EEE17__annotate_deleteB8ne200100Ev, symObjAddr: 0x21630, symBinAddr: 0x1000246F8, symSize: 0x10 }
  - { offset: 0x2CACE, size: 0x8, addend: 0x0, symName: __ZNSt3__116allocator_traitsINS_9allocatorINS_10shared_ptrI8GeometryEEEEE10deallocateB8ne200100ERS5_PS4_m, symObjAddr: 0x21640, symBinAddr: 0x100024708, symSize: 0x34 }
  - { offset: 0x2CB10, size: 0x8, addend: 0x0, symName: __ZNKSt3__16vectorINS_10shared_ptrI8GeometryEENS_9allocatorIS3_EEE8capacityB8ne200100Ev, symObjAddr: 0x21674, symBinAddr: 0x10002473C, symSize: 0x28 }
  - { offset: 0x2CB36, size: 0x8, addend: 0x0, symName: __ZNKSt3__16vectorINS_10shared_ptrI8GeometryEENS_9allocatorIS3_EEE4sizeB8ne200100Ev, symObjAddr: 0x2169C, symBinAddr: 0x100024764, symSize: 0x28 }
  - { offset: 0x2CB5C, size: 0x8, addend: 0x0, symName: __ZNSt3__16vectorINS_10shared_ptrI8GeometryEENS_9allocatorIS3_EEE22__base_destruct_at_endB8ne200100EPS3_, symObjAddr: 0x216C4, symBinAddr: 0x10002478C, symSize: 0x7C }
  - { offset: 0x2CBA0, size: 0x8, addend: 0x0, symName: __ZNKSt3__16vectorINS_10shared_ptrI8GeometryEENS_9allocatorIS3_EEE17__annotate_shrinkB8ne200100Em, symObjAddr: 0x21740, symBinAddr: 0x100024808, symSize: 0x14 }
  - { offset: 0x2CBD5, size: 0x8, addend: 0x0, symName: __ZNSt3__19allocatorINS_10shared_ptrI8GeometryEEE10deallocateB8ne200100EPS3_m, symObjAddr: 0x21754, symBinAddr: 0x10002481C, symSize: 0x34 }
  - { offset: 0x2CC17, size: 0x8, addend: 0x0, symName: __ZNSt3__110shared_ptrI8GeometryED2B8ne200100Ev, symObjAddr: 0x21854, symBinAddr: 0x10002491C, symSize: 0x4C }
  - { offset: 0x2CC41, size: 0x8, addend: 0x0, symName: __ZNSt3__119__shared_weak_count16__release_sharedB8ne200100Ev, symObjAddr: 0x218A0, symBinAddr: 0x100024968, symSize: 0x3C }
  - { offset: 0x2CC67, size: 0x8, addend: 0x0, symName: __ZNSt3__114__shared_count16__release_sharedB8ne200100Ev, symObjAddr: 0x218DC, symBinAddr: 0x1000249A4, symSize: 0x78 }
  - { offset: 0x2CC8D, size: 0x8, addend: 0x0, symName: __ZNSt3__110shared_ptrI6SphereED2B8ne200100Ev, symObjAddr: 0x21984, symBinAddr: 0x100024A4C, symSize: 0x4C }
  - { offset: 0x2CCB7, size: 0x8, addend: 0x0, symName: __ZNSt3__16vectorINS_10shared_ptrI8GeometryEENS_9allocatorIS3_EEED2B8ne200100Ev, symObjAddr: 0x219D0, symBinAddr: 0x100024A98, symSize: 0x40 }
  - { offset: 0x2CCE0, size: 0x8, addend: 0x0, symName: __Z14example_structii5ScenePKcbi, symObjAddr: 0x21A10, symBinAddr: 0x100024AD8, symSize: 0x250 }
  - { offset: 0x2CDAE, size: 0x8, addend: 0x0, symName: __ZNSt3__16vectorIhNS_9allocatorIhEEEC1B8ne200100EmRKh, symObjAddr: 0x21C60, symBinAddr: 0x100024D28, symSize: 0x3C }
  - { offset: 0x2CDF4, size: 0x8, addend: 0x0, symName: __Z14example_structii5ScenePKcbi.omp_outlined_debug__, symObjAddr: 0x21C9C, symBinAddr: 0x100024D64, symSize: 0x6FC }
  - { offset: 0x2CFFA, size: 0x8, addend: 0x0, symName: __Z14example_structii5ScenePKcbi.omp_outlined, symObjAddr: 0x22398, symBinAddr: 0x100025460, symSize: 0x80 }
  - { offset: 0x2D093, size: 0x8, addend: 0x0, symName: __ZNSt3__126linear_congruential_engineIjLj48271ELj0ELj2147483647EEC1B8ne200100Ej, symObjAddr: 0x22418, symBinAddr: 0x1000254E0, symSize: 0x34 }
  - { offset: 0x2D0CC, size: 0x8, addend: 0x0, symName: __ZN3RayC1ERK6VectorS2_, symObjAddr: 0x2244C, symBinAddr: 0x100025514, symSize: 0x3C }
  - { offset: 0x2D23F, size: 0x8, addend: 0x0, symName: __ZN5Scene8getColorER3RayRNSt3__126linear_congruential_engineIjLj48271ELj0ELj2147483647EEEbii, symObjAddr: 0x22488, symBinAddr: 0x100025550, symSize: 0x1668 }
  - { offset: 0x2D5C7, size: 0x8, addend: 0x0, symName: __ZNSt3__16vectorIhNS_9allocatorIhEEEixB8ne200100Em, symObjAddr: 0x23B1C, symBinAddr: 0x100026BE4, symSize: 0x24 }
  - { offset: 0x2D5FC, size: 0x8, addend: 0x0, symName: __ZNSt3__16chrono8durationIdNS_5ratioILl1ELl1EEEEC1B8ne200100IxNS2_ILl1ELl1000000000EEETnNS_9enable_ifIXaasr13__no_overflowIT0_S3_EE5valueooL_ZNS_17integral_constantIbLb1EE5valueEEaaeqsr13__no_overflowIS8_S3_E4typeE3denLi1Entsr23treat_as_floating_pointIT_EE5valueEiE4typeELi0EEERKNS1_ISB_S8_EE, symObjAddr: 0x23B98, symBinAddr: 0x100026C60, symSize: 0x34 }
  - { offset: 0x2D64C, size: 0x8, addend: 0x0, symName: __ZNKSt3__16chrono8durationIdNS_5ratioILl1ELl1EEEE5countB8ne200100Ev, symObjAddr: 0x23C14, symBinAddr: 0x100026CDC, symSize: 0x18 }
  - { offset: 0x2D672, size: 0x8, addend: 0x0, symName: __ZNSt3__113basic_ostreamIcNS_11char_traitsIcEEElsB8ne200100EPFRS3_S4_E, symObjAddr: 0x23C2C, symBinAddr: 0x100026CF4, symSize: 0x2C }
  - { offset: 0x2D6A6, size: 0x8, addend: 0x0, symName: __ZNSt3__16vectorIhNS_9allocatorIhEEED1B8ne200100Ev, symObjAddr: 0x23CAC, symBinAddr: 0x100026D74, symSize: 0x2C }
  - { offset: 0x2D6D0, size: 0x8, addend: 0x0, symName: __ZNSt3__16vectorIhNS_9allocatorIhEEEC2B8ne200100EmRKh, symObjAddr: 0x23CD8, symBinAddr: 0x100026DA0, symSize: 0xCC }
  - { offset: 0x2D72A, size: 0x8, addend: 0x0, symName: __ZNSt3__19allocatorIhEC1B8ne200100Ev, symObjAddr: 0x23DA4, symBinAddr: 0x100026E6C, symSize: 0x2C }
  - { offset: 0x2D754, size: 0x8, addend: 0x0, symName: __ZNSt3__16vectorIhNS_9allocatorIhEEE16__destroy_vectorC1B8ne200100ERS3_, symObjAddr: 0x23E10, symBinAddr: 0x100026ED8, symSize: 0x34 }
  - { offset: 0x2D78C, size: 0x8, addend: 0x0, symName: __ZNSt3__16vectorIhNS_9allocatorIhEEE11__vallocateB8ne200100Em, symObjAddr: 0x23E44, symBinAddr: 0x100026F0C, symSize: 0x8C }
  - { offset: 0x2D7D0, size: 0x8, addend: 0x0, symName: __ZNSt3__16vectorIhNS_9allocatorIhEEE18__construct_at_endEmRKh, symObjAddr: 0x23ED0, symBinAddr: 0x100026F98, symSize: 0xC0 }
  - { offset: 0x2D84F, size: 0x8, addend: 0x0, symName: __ZNSt3__128__exception_guard_exceptionsINS_6vectorIhNS_9allocatorIhEEE16__destroy_vectorEE10__completeB8ne200100Ev, symObjAddr: 0x23F90, symBinAddr: 0x100027058, symSize: 0x1C }
  - { offset: 0x2D875, size: 0x8, addend: 0x0, symName: __ZNSt3__128__exception_guard_exceptionsINS_6vectorIhNS_9allocatorIhEEE16__destroy_vectorEED1B8ne200100Ev, symObjAddr: 0x23FAC, symBinAddr: 0x100027074, symSize: 0x2C }
  - { offset: 0x2D89F, size: 0x8, addend: 0x0, symName: __ZNSt3__19allocatorIhEC2B8ne200100Ev, symObjAddr: 0x23FD8, symBinAddr: 0x1000270A0, symSize: 0x2C }
  - { offset: 0x2D8C9, size: 0x8, addend: 0x0, symName: __ZNSt3__116__non_trivial_ifILb1ENS_9allocatorIhEEEC2B8ne200100Ev, symObjAddr: 0x24004, symBinAddr: 0x1000270CC, symSize: 0x14 }
  - { offset: 0x2D8F3, size: 0x8, addend: 0x0, symName: __ZNSt3__128__exception_guard_exceptionsINS_6vectorIhNS_9allocatorIhEEE16__destroy_vectorEEC1B8ne200100ES5_, symObjAddr: 0x24018, symBinAddr: 0x1000270E0, symSize: 0x34 }
  - { offset: 0x2D92B, size: 0x8, addend: 0x0, symName: __ZNSt3__128__exception_guard_exceptionsINS_6vectorIhNS_9allocatorIhEEE16__destroy_vectorEEC2B8ne200100ES5_, symObjAddr: 0x2404C, symBinAddr: 0x100027114, symSize: 0x24 }
  - { offset: 0x2D963, size: 0x8, addend: 0x0, symName: __ZNSt3__16vectorIhNS_9allocatorIhEEE16__destroy_vectorC2B8ne200100ERS3_, symObjAddr: 0x24070, symBinAddr: 0x100027138, symSize: 0x20 }
  - { offset: 0x2D99B, size: 0x8, addend: 0x0, symName: __ZNKSt3__16vectorIhNS_9allocatorIhEEE8max_sizeB8ne200100Ev, symObjAddr: 0x24090, symBinAddr: 0x100027158, symSize: 0x5C }
  - { offset: 0x2D9C1, size: 0x8, addend: 0x0, symName: __ZNSt3__16vectorIhNS_9allocatorIhEEE20__throw_length_errorB8ne200100Ev, symObjAddr: 0x240EC, symBinAddr: 0x1000271B4, symSize: 0x14 }
  - { offset: 0x2D9D5, size: 0x8, addend: 0x0, symName: __ZNKSt3__16vectorIhNS_9allocatorIhEEE14__annotate_newB8ne200100Em, symObjAddr: 0x24140, symBinAddr: 0x100027208, symSize: 0x14 }
  - { offset: 0x2DA15, size: 0x8, addend: 0x0, symName: __ZNSt3__116allocator_traitsINS_9allocatorIhEEE8max_sizeB8ne200100IS2_TnNS_9enable_ifIXsr14__has_max_sizeIKT_EE5valueEiE4typeELi0EEEmRKS2_, symObjAddr: 0x24154, symBinAddr: 0x10002721C, symSize: 0x24 }
  - { offset: 0x2DA48, size: 0x8, addend: 0x0, symName: __ZNKSt3__19allocatorIhE8max_sizeB8ne200100Ev, symObjAddr: 0x24178, symBinAddr: 0x100027240, symSize: 0x14 }
  - { offset: 0x2DA6E, size: 0x8, addend: 0x0, symName: __ZNSt3__19allocatorIhE8allocateB8ne200100Em, symObjAddr: 0x2418C, symBinAddr: 0x100027254, symSize: 0x50 }
  - { offset: 0x2DABD, size: 0x8, addend: 0x0, symName: __ZNSt3__16vectorIhNS_9allocatorIhEEE21_ConstructTransactionC1B8ne200100ERS3_m, symObjAddr: 0x24248, symBinAddr: 0x100027310, symSize: 0x3C }
  - { offset: 0x2DB05, size: 0x8, addend: 0x0, symName: __ZNSt3__116allocator_traitsINS_9allocatorIhEEE9constructB8ne200100IhJRKhETnNS_9enable_ifIXsr15__has_constructIS2_PT_DpT0_EE5valueEiE4typeELi0EEEvRS2_S9_DpOSA_, symObjAddr: 0x24284, symBinAddr: 0x10002734C, symSize: 0x34 }
  - { offset: 0x2DB61, size: 0x8, addend: 0x0, symName: __ZNSt3__16vectorIhNS_9allocatorIhEEE21_ConstructTransactionD1B8ne200100Ev, symObjAddr: 0x242CC, symBinAddr: 0x100027394, symSize: 0x2C }
  - { offset: 0x2DB8B, size: 0x8, addend: 0x0, symName: __ZNSt3__16vectorIhNS_9allocatorIhEEE21_ConstructTransactionC2B8ne200100ERS3_m, symObjAddr: 0x242F8, symBinAddr: 0x1000273C0, symSize: 0x44 }
  - { offset: 0x2DBD3, size: 0x8, addend: 0x0, symName: __ZNSt3__19allocatorIhE9constructB8ne200100IhJRKhEEEvPT_DpOT0_, symObjAddr: 0x2433C, symBinAddr: 0x100027404, symSize: 0x28 }
  - { offset: 0x2DC29, size: 0x8, addend: 0x0, symName: __ZNSt3__16vectorIhNS_9allocatorIhEEE21_ConstructTransactionD2B8ne200100Ev, symObjAddr: 0x24364, symBinAddr: 0x10002742C, symSize: 0x20 }
  - { offset: 0x2DC53, size: 0x8, addend: 0x0, symName: __ZNSt3__128__exception_guard_exceptionsINS_6vectorIhNS_9allocatorIhEEE16__destroy_vectorEED2B8ne200100Ev, symObjAddr: 0x24384, symBinAddr: 0x10002744C, symSize: 0x50 }
  - { offset: 0x2DC7D, size: 0x8, addend: 0x0, symName: __ZNSt3__16vectorIhNS_9allocatorIhEEE16__destroy_vectorclB8ne200100Ev, symObjAddr: 0x243D4, symBinAddr: 0x10002749C, symSize: 0x80 }
  - { offset: 0x2DCA3, size: 0x8, addend: 0x0, symName: __ZNSt3__16vectorIhNS_9allocatorIhEEE5clearB8ne200100Ev, symObjAddr: 0x24454, symBinAddr: 0x10002751C, symSize: 0x48 }
  - { offset: 0x2DCD8, size: 0x8, addend: 0x0, symName: __ZNKSt3__16vectorIhNS_9allocatorIhEEE17__annotate_deleteB8ne200100Ev, symObjAddr: 0x2449C, symBinAddr: 0x100027564, symSize: 0x10 }
  - { offset: 0x2DCFE, size: 0x8, addend: 0x0, symName: __ZNSt3__116allocator_traitsINS_9allocatorIhEEE10deallocateB8ne200100ERS2_Phm, symObjAddr: 0x244AC, symBinAddr: 0x100027574, symSize: 0x34 }
  - { offset: 0x2DD40, size: 0x8, addend: 0x0, symName: __ZNKSt3__16vectorIhNS_9allocatorIhEEE8capacityB8ne200100Ev, symObjAddr: 0x244E0, symBinAddr: 0x1000275A8, symSize: 0x20 }
  - { offset: 0x2DD66, size: 0x8, addend: 0x0, symName: __ZNKSt3__16vectorIhNS_9allocatorIhEEE4sizeB8ne200100Ev, symObjAddr: 0x24500, symBinAddr: 0x1000275C8, symSize: 0x20 }
  - { offset: 0x2DD8C, size: 0x8, addend: 0x0, symName: __ZNSt3__16vectorIhNS_9allocatorIhEEE22__base_destruct_at_endB8ne200100EPh, symObjAddr: 0x24520, symBinAddr: 0x1000275E8, symSize: 0x7C }
  - { offset: 0x2DDD0, size: 0x8, addend: 0x0, symName: __ZNKSt3__16vectorIhNS_9allocatorIhEEE17__annotate_shrinkB8ne200100Em, symObjAddr: 0x2459C, symBinAddr: 0x100027664, symSize: 0x14 }
  - { offset: 0x2DE05, size: 0x8, addend: 0x0, symName: __ZNSt3__116allocator_traitsINS_9allocatorIhEEE7destroyB8ne200100IhTnNS_9enable_ifIXsr13__has_destroyIS2_PT_EE5valueEiE4typeELi0EEEvRS2_S7_, symObjAddr: 0x245B0, symBinAddr: 0x100027678, symSize: 0x2C }
  - { offset: 0x2DE47, size: 0x8, addend: 0x0, symName: __ZNSt3__19allocatorIhE7destroyB8ne200100EPh, symObjAddr: 0x245DC, symBinAddr: 0x1000276A4, symSize: 0x14 }
  - { offset: 0x2DE7B, size: 0x8, addend: 0x0, symName: __ZNSt3__19allocatorIhE10deallocateB8ne200100EPhm, symObjAddr: 0x245F0, symBinAddr: 0x1000276B8, symSize: 0x34 }
  - { offset: 0x2DEBD, size: 0x8, addend: 0x0, symName: __ZNSt3__126linear_congruential_engineIjLj48271ELj0ELj2147483647EEC2B8ne200100Ej, symObjAddr: 0x246F0, symBinAddr: 0x1000277B8, symSize: 0x34 }
  - { offset: 0x2DEF6, size: 0x8, addend: 0x0, symName: __ZNSt3__126linear_congruential_engineIjLj48271ELj0ELj2147483647EE4seedB8ne200100Ej, symObjAddr: 0x24724, symBinAddr: 0x1000277EC, symSize: 0x2C }
  - { offset: 0x2DF2B, size: 0x8, addend: 0x0, symName: __ZNSt3__126linear_congruential_engineIjLj48271ELj0ELj2147483647EE4seedB8ne200100ENS_17integral_constantIbLb0EEENS2_IbLb1EEEj, symObjAddr: 0x24750, symBinAddr: 0x100027818, symSize: 0x6C }
  - { offset: 0x2DF78, size: 0x8, addend: 0x0, symName: __ZN3RayC2ERK6VectorS2_, symObjAddr: 0x247BC, symBinAddr: 0x100027884, symSize: 0x60 }
  - { offset: 0x2DFBE, size: 0x8, addend: 0x0, symName: __ZNK5Scene16findIntersectionERK3Rayi, symObjAddr: 0x2481C, symBinAddr: 0x1000278E4, symSize: 0x1C0 }
  - { offset: 0x2E076, size: 0x8, addend: 0x0, symName: __ZNK5Scene21findIntersectionLightERK3Ray, symObjAddr: 0x249DC, symBinAddr: 0x100027AA4, symSize: 0x234 }
  - { offset: 0x2E12F, size: 0x8, addend: 0x0, symName: __ZNK12Intersection13isIntersectedEv, symObjAddr: 0x24C10, symBinAddr: 0x100027CD8, symSize: 0x1C }
  - { offset: 0x2E155, size: 0x8, addend: 0x0, symName: __ZNSt3__16vectorINS_10shared_ptrI11LightSourceEENS_9allocatorIS3_EEEixB8ne200100Em, symObjAddr: 0x24C2C, symBinAddr: 0x100027CF4, symSize: 0x24 }
  - { offset: 0x2E18A, size: 0x8, addend: 0x0, symName: __ZNSt3__110shared_ptrI11LightSourceEC1B8ne200100ERKS2_, symObjAddr: 0x24C50, symBinAddr: 0x100027D18, symSize: 0x34 }
  - { offset: 0x2E1C3, size: 0x8, addend: 0x0, symName: __ZNKSt3__110shared_ptrI11LightSourceEptB8ne200100Ev, symObjAddr: 0x24C84, symBinAddr: 0x100027D4C, symSize: 0x18 }
  - { offset: 0x2E1E9, size: 0x8, addend: 0x0, symName: __ZNKSt3__110shared_ptrI11LightSourceE3getB8ne200100Ev, symObjAddr: 0x24C9C, symBinAddr: 0x100027D64, symSize: 0x18 }
  - { offset: 0x2E20F, size: 0x8, addend: 0x0, symName: __ZNSt3__110shared_ptrI11LightSourceED1B8ne200100Ev, symObjAddr: 0x24CB4, symBinAddr: 0x100027D7C, symSize: 0x2C }
  - { offset: 0x2E239, size: 0x8, addend: 0x0, symName: __ZNSt3__16vectorINS_10shared_ptrI8GeometryEENS_9allocatorIS3_EEEixB8ne200100Em, symObjAddr: 0x24CE0, symBinAddr: 0x100027DA8, symSize: 0x24 }
  - { offset: 0x2E26E, size: 0x8, addend: 0x0, symName: __ZNKSt3__110shared_ptrI8GeometryEptB8ne200100Ev, symObjAddr: 0x24D04, symBinAddr: 0x100027DCC, symSize: 0x18 }
  - { offset: 0x2E294, size: 0x8, addend: 0x0, symName: __ZN6Vector6updateERKS_, symObjAddr: 0x24D1C, symBinAddr: 0x100027DE4, symSize: 0x64 }
  - { offset: 0x2E2C8, size: 0x8, addend: 0x0, symName: __ZNSt3__16vectorINS_10shared_ptrI11LightSourceEENS_9allocatorIS3_EEE5beginB8ne200100Ev, symObjAddr: 0x24DB8, symBinAddr: 0x100027E80, symSize: 0x40 }
  - { offset: 0x2E2EE, size: 0x8, addend: 0x0, symName: __ZNSt3__16vectorINS_10shared_ptrI11LightSourceEENS_9allocatorIS3_EEE3endB8ne200100Ev, symObjAddr: 0x24DF8, symBinAddr: 0x100027EC0, symSize: 0x40 }
  - { offset: 0x2E314, size: 0x8, addend: 0x0, symName: __ZNKSt3__111__wrap_iterIPNS_10shared_ptrI11LightSourceEEEdeB8ne200100Ev, symObjAddr: 0x24E68, symBinAddr: 0x100027F30, symSize: 0x18 }
  - { offset: 0x2E33A, size: 0x8, addend: 0x0, symName: __ZNKSt3__110shared_ptrI11LightSourceEdeB8ne200100Ev, symObjAddr: 0x24E80, symBinAddr: 0x100027F48, symSize: 0x18 }
  - { offset: 0x2E360, size: 0x8, addend: 0x0, symName: __ZNSt3__111__wrap_iterIPNS_10shared_ptrI11LightSourceEEEppB8ne200100Ev, symObjAddr: 0x24EC4, symBinAddr: 0x100027F8C, symSize: 0x20 }
  - { offset: 0x2E386, size: 0x8, addend: 0x0, symName: __ZNSt3__114numeric_limitsIdE3maxB8ne200100Ev, symObjAddr: 0x24EE4, symBinAddr: 0x100027FAC, symSize: 0x14 }
  - { offset: 0x2E39A, size: 0x8, addend: 0x0, symName: __ZNKSt3__16vectorINS_10shared_ptrI8GeometryEENS_9allocatorIS3_EEEixB8ne200100Em, symObjAddr: 0x24EF8, symBinAddr: 0x100027FC0, symSize: 0x24 }
  - { offset: 0x2E3CF, size: 0x8, addend: 0x0, symName: __ZNKSt3__110shared_ptrI8GeometryEdeB8ne200100Ev, symObjAddr: 0x24F1C, symBinAddr: 0x100027FE4, symSize: 0x18 }
  - { offset: 0x2E3FB, size: 0x8, addend: 0x0, symName: __ZNSt3__14pairI12IntersectioniEC1B8ne200100IRS1_RiTnNS_9enable_ifIXclsr10_CheckArgsE23__is_pair_constructibleIT_T0_EEEiE4typeELi0EEEOS7_OS8_, symObjAddr: 0x24F34, symBinAddr: 0x100027FFC, symSize: 0x3C }
  - { offset: 0x2E459, size: 0x8, addend: 0x0, symName: __ZNSt3__123__libcpp_numeric_limitsIdLb1EE3maxB8ne200100Ev, symObjAddr: 0x24F70, symBinAddr: 0x100028038, symSize: 0xC }
  - { offset: 0x2E46D, size: 0x8, addend: 0x0, symName: __ZNSt3__14pairI12IntersectioniEC2B8ne200100IRS1_RiTnNS_9enable_ifIXclsr10_CheckArgsE23__is_pair_constructibleIT_T0_EEEiE4typeELi0EEEOS7_OS8_, symObjAddr: 0x24F7C, symBinAddr: 0x100028044, symSize: 0x48 }
  - { offset: 0x2E4CB, size: 0x8, addend: 0x0, symName: __ZNKSt3__16vectorINS_10shared_ptrI11LightSourceEENS_9allocatorIS3_EEE4sizeB8ne200100Ev, symObjAddr: 0x24FC4, symBinAddr: 0x10002808C, symSize: 0x28 }
  - { offset: 0x2E4F1, size: 0x8, addend: 0x0, symName: __ZNKSt3__16vectorINS_10shared_ptrI11LightSourceEENS_9allocatorIS3_EEEixB8ne200100Em, symObjAddr: 0x24FEC, symBinAddr: 0x1000280B4, symSize: 0x24 }
  - { offset: 0x2E526, size: 0x8, addend: 0x0, symName: __ZNSt3__110shared_ptrI11LightSourceEC2B8ne200100ERKS2_, symObjAddr: 0x25010, symBinAddr: 0x1000280D8, symSize: 0x68 }
  - { offset: 0x2E55F, size: 0x8, addend: 0x0, symName: __ZNSt3__110shared_ptrI11LightSourceED2B8ne200100Ev, symObjAddr: 0x25078, symBinAddr: 0x100028140, symSize: 0x4C }
  - { offset: 0x2E589, size: 0x8, addend: 0x0, symName: __ZNSt3__16vectorINS_10shared_ptrI11LightSourceEENS_9allocatorIS3_EEE11__make_iterB8ne200100EPS3_, symObjAddr: 0x250F0, symBinAddr: 0x1000281B8, symSize: 0x30 }
  - { offset: 0x2E5BE, size: 0x8, addend: 0x0, symName: __ZNSt3__16vectorINS_10shared_ptrI11LightSourceEENS_9allocatorIS3_EEE26__add_alignment_assumptionB8ne200100IPS3_TnNS_9enable_ifIXsr10is_pointerIT_EE5valueEiE4typeELi0EEES8_SA_, symObjAddr: 0x25120, symBinAddr: 0x1000281E8, symSize: 0x14 }
  - { offset: 0x2E5F1, size: 0x8, addend: 0x0, symName: __ZNSt3__111__wrap_iterIPNS_10shared_ptrI11LightSourceEEEC1B8ne200100ES4_, symObjAddr: 0x25134, symBinAddr: 0x1000281FC, symSize: 0x34 }
  - { offset: 0x2E629, size: 0x8, addend: 0x0, symName: __ZNSt3__111__wrap_iterIPNS_10shared_ptrI11LightSourceEEEC2B8ne200100ES4_, symObjAddr: 0x25168, symBinAddr: 0x100028230, symSize: 0x20 }
  - { offset: 0x2E661, size: 0x8, addend: 0x0, symName: __ZNKSt3__111__wrap_iterIPNS_10shared_ptrI11LightSourceEEE4baseB8ne200100Ev, symObjAddr: 0x251CC, symBinAddr: 0x100028294, symSize: 0x18 }
  - { offset: 0x2E687, size: 0x8, addend: 0x0, symName: __ZNKSt3__16__lessIvvEclB8ne200100IddEEbRKT_RKT0_, symObjAddr: 0x25238, symBinAddr: 0x100028300, symSize: 0x30 }
  - { offset: 0x2E6FB, size: 0x8, addend: 0x0, symName: __ZNKSt3__16chrono10time_pointINS0_12steady_clockENS0_8durationIxNS_5ratioILl1ELl1000000000EEEEEE16time_since_epochB8ne200100Ev, symObjAddr: 0x25328, symBinAddr: 0x1000283F0, symSize: 0x20 }
  - { offset: 0x2E721, size: 0x8, addend: 0x0, symName: __ZNKSt3__16chrono8durationIxNS_5ratioILl1ELl1000000000EEEE5countB8ne200100Ev, symObjAddr: 0x25348, symBinAddr: 0x100028410, symSize: 0x18 }
  - { offset: 0x2E752, size: 0x8, addend: 0x0, symName: __ZNSt3__16chrono8durationIxNS_5ratioILl1ELl1000000000EEEEC1B8ne200100IxTnNS_9enable_ifIXaasr14is_convertibleIRKT_xEE5valueooL_ZNS_17integral_constantIbLb0EE5valueEEntsr23treat_as_floating_pointIS7_EE5valueEiE4typeELi0EEES9_, symObjAddr: 0x25360, symBinAddr: 0x100028428, symSize: 0x34 }
  - { offset: 0x2E799, size: 0x8, addend: 0x0, symName: __ZNSt3__16chrono8durationIxNS_5ratioILl1ELl1000000000EEEEC2B8ne200100IxTnNS_9enable_ifIXaasr14is_convertibleIRKT_xEE5valueooL_ZNS_17integral_constantIbLb0EE5valueEEntsr23treat_as_floating_pointIS7_EE5valueEiE4typeELi0EEES9_, symObjAddr: 0x25394, symBinAddr: 0x10002845C, symSize: 0x24 }
  - { offset: 0x2E7E0, size: 0x8, addend: 0x0, symName: __ZNSt3__16chrono8durationIdNS_5ratioILl1ELl1EEEEC2B8ne200100IxNS2_ILl1ELl1000000000EEETnNS_9enable_ifIXaasr13__no_overflowIT0_S3_EE5valueooL_ZNS_17integral_constantIbLb1EE5valueEEaaeqsr13__no_overflowIS8_S3_E4typeE3denLi1Entsr23treat_as_floating_pointIT_EE5valueEiE4typeELi0EEERKNS1_ISB_S8_EE, symObjAddr: 0x253B8, symBinAddr: 0x100028480, symSize: 0x44 }
  - { offset: 0x2E830, size: 0x8, addend: 0x0, symName: __ZNSt3__16chrono8durationIdNS_5ratioILl1ELl1EEEEC1B8ne200100IdTnNS_9enable_ifIXaasr14is_convertibleIRKT_dEE5valueooL_ZNS_17integral_constantIbLb1EE5valueEEntsr23treat_as_floating_pointIS7_EE5valueEiE4typeELi0EEES9_, symObjAddr: 0x2547C, symBinAddr: 0x100028544, symSize: 0x34 }
  - { offset: 0x2E877, size: 0x8, addend: 0x0, symName: __ZNSt3__16chrono8durationIdNS_5ratioILl1ELl1EEEEC2B8ne200100IdTnNS_9enable_ifIXaasr14is_convertibleIRKT_dEE5valueooL_ZNS_17integral_constantIbLb1EE5valueEEntsr23treat_as_floating_pointIS7_EE5valueEiE4typeELi0EEES9_, symObjAddr: 0x254B0, symBinAddr: 0x100028578, symSize: 0x24 }
  - { offset: 0x2E8BE, size: 0x8, addend: 0x0, symName: __ZNSt3__111char_traitsIcE6lengthB8ne200100EPKc, symObjAddr: 0x256B8, symBinAddr: 0x100028780, symSize: 0x24 }
  - { offset: 0x2E902, size: 0x8, addend: 0x0, symName: __ZNKSt3__113basic_ostreamIcNS_11char_traitsIcEEE6sentrycvbB8ne200100Ev, symObjAddr: 0x256DC, symBinAddr: 0x1000287A4, symSize: 0x1C }
  - { offset: 0x2E928, size: 0x8, addend: 0x0, symName: __ZNSt3__119ostreambuf_iteratorIcNS_11char_traitsIcEEEC1B8ne200100ERNS_13basic_ostreamIcS2_EE, symObjAddr: 0x2590C, symBinAddr: 0x1000289D4, symSize: 0x34 }
  - { offset: 0x2E960, size: 0x8, addend: 0x0, symName: __ZNKSt3__18ios_base5flagsB8ne200100Ev, symObjAddr: 0x25940, symBinAddr: 0x100028A08, symSize: 0x18 }
  - { offset: 0x2E988, size: 0x8, addend: 0x0, symName: __ZNKSt3__19basic_iosIcNS_11char_traitsIcEEE4fillB8ne200100Ev, symObjAddr: 0x25958, symBinAddr: 0x100028A20, symSize: 0x64 }
  - { offset: 0x2E9AE, size: 0x8, addend: 0x0, symName: __ZNKSt3__119ostreambuf_iteratorIcNS_11char_traitsIcEEE6failedB8ne200100Ev, symObjAddr: 0x259BC, symBinAddr: 0x100028A84, symSize: 0x20 }
  - { offset: 0x2E9D4, size: 0x8, addend: 0x0, symName: __ZNSt3__19basic_iosIcNS_11char_traitsIcEEE8setstateB8ne200100Ej, symObjAddr: 0x259DC, symBinAddr: 0x100028AA4, symSize: 0x2C }
  - { offset: 0x2EA09, size: 0x8, addend: 0x0, symName: __ZNKSt3__18ios_base5widthB8ne200100Ev, symObjAddr: 0x25A08, symBinAddr: 0x100028AD0, symSize: 0x18 }
  - { offset: 0x2EA31, size: 0x8, addend: 0x0, symName: __ZNSt3__115basic_streambufIcNS_11char_traitsIcEEE5sputnB8ne200100EPKcl, symObjAddr: 0x25A20, symBinAddr: 0x100028AE8, symSize: 0x3C }
  - { offset: 0x2EA73, size: 0x8, addend: 0x0, symName: __ZNSt3__112basic_stringIcNS_11char_traitsIcEENS_9allocatorIcEEEC1B8ne200100Emc, symObjAddr: 0x25A5C, symBinAddr: 0x100028B24, symSize: 0x3C }
  - { offset: 0x2EABB, size: 0x8, addend: 0x0, symName: __ZNSt3__112basic_stringIcNS_11char_traitsIcEENS_9allocatorIcEEE4dataB8ne200100Ev, symObjAddr: 0x25A98, symBinAddr: 0x100028B60, symSize: 0x28 }
  - { offset: 0x2EAE1, size: 0x8, addend: 0x0, symName: __ZNSt3__18ios_base5widthB8ne200100El, symObjAddr: 0x25AC0, symBinAddr: 0x100028B88, symSize: 0x2C }
  - { offset: 0x2EB27, size: 0x8, addend: 0x0, symName: __ZNSt3__112basic_stringIcNS_11char_traitsIcEENS_9allocatorIcEEEC2B8ne200100Emc, symObjAddr: 0x25AEC, symBinAddr: 0x100028BB4, symSize: 0x44 }
  - { offset: 0x2EB6F, size: 0x8, addend: 0x0, symName: __ZNSt3__19allocatorIcEC1B8ne200100Ev, symObjAddr: 0x25B30, symBinAddr: 0x100028BF8, symSize: 0x2C }
  - { offset: 0x2EB99, size: 0x8, addend: 0x0, symName: __ZNSt3__19allocatorIcEC2B8ne200100Ev, symObjAddr: 0x25B5C, symBinAddr: 0x100028C24, symSize: 0x2C }
  - { offset: 0x2EBC3, size: 0x8, addend: 0x0, symName: __ZNSt3__116__non_trivial_ifILb1ENS_9allocatorIcEEEC2B8ne200100Ev, symObjAddr: 0x25B88, symBinAddr: 0x100028C50, symSize: 0x14 }
  - { offset: 0x2EBED, size: 0x8, addend: 0x0, symName: __ZNSt3__112basic_stringIcNS_11char_traitsIcEENS_9allocatorIcEEE13__get_pointerB8ne200100Ev, symObjAddr: 0x25BB0, symBinAddr: 0x100028C78, symSize: 0x54 }
  - { offset: 0x2EC13, size: 0x8, addend: 0x0, symName: __ZNKSt3__112basic_stringIcNS_11char_traitsIcEENS_9allocatorIcEEE9__is_longB8ne200100Ev, symObjAddr: 0x25C04, symBinAddr: 0x100028CCC, symSize: 0x24 }
  - { offset: 0x2EC39, size: 0x8, addend: 0x0, symName: __ZNSt3__112basic_stringIcNS_11char_traitsIcEENS_9allocatorIcEEE18__get_long_pointerB8ne200100Ev, symObjAddr: 0x25C28, symBinAddr: 0x100028CF0, symSize: 0x18 }
  - { offset: 0x2EC5F, size: 0x8, addend: 0x0, symName: __ZNSt3__112basic_stringIcNS_11char_traitsIcEENS_9allocatorIcEEE19__get_short_pointerB8ne200100Ev, symObjAddr: 0x25C40, symBinAddr: 0x100028D08, symSize: 0x24 }
  - { offset: 0x2EC85, size: 0x8, addend: 0x0, symName: __ZNSt3__114pointer_traitsIPcE10pointer_toB8ne200100ERc, symObjAddr: 0x25C64, symBinAddr: 0x100028D2C, symSize: 0x14 }
  - { offset: 0x2ECA8, size: 0x8, addend: 0x0, symName: __ZNSt3__119ostreambuf_iteratorIcNS_11char_traitsIcEEEC2B8ne200100ERNS_13basic_ostreamIcS2_EE, symObjAddr: 0x25C78, symBinAddr: 0x100028D40, symSize: 0x54 }
  - { offset: 0x2ECE0, size: 0x8, addend: 0x0, symName: __ZNKSt3__19basic_iosIcNS_11char_traitsIcEEE5rdbufB8ne200100Ev, symObjAddr: 0x25CCC, symBinAddr: 0x100028D94, symSize: 0x24 }
  - { offset: 0x2ED06, size: 0x8, addend: 0x0, symName: __ZNKSt3__18ios_base5rdbufB8ne200100Ev, symObjAddr: 0x25CF0, symBinAddr: 0x100028DB8, symSize: 0x18 }
  - { offset: 0x2ED2C, size: 0x8, addend: 0x0, symName: __ZNKSt3__118_SentinelValueFillINS_11char_traitsIcEEE8__is_setB8ne200100Ev, symObjAddr: 0x25D08, symBinAddr: 0x100028DD0, symSize: 0x38 }
  - { offset: 0x2ED52, size: 0x8, addend: 0x0, symName: __ZNKSt3__19basic_iosIcNS_11char_traitsIcEEE5widenB8ne200100Ec, symObjAddr: 0x25D40, symBinAddr: 0x100028E08, symSize: 0x80 }
  - { offset: 0x2ED87, size: 0x8, addend: 0x0, symName: __ZNSt3__118_SentinelValueFillINS_11char_traitsIcEEEaSB8ne200100Ei, symObjAddr: 0x25DC0, symBinAddr: 0x100028E88, symSize: 0x20 }
  - { offset: 0x2EDBC, size: 0x8, addend: 0x0, symName: __ZNKSt3__118_SentinelValueFillINS_11char_traitsIcEEE5__getB8ne200100Ev, symObjAddr: 0x25DE0, symBinAddr: 0x100028EA8, symSize: 0x18 }
  - { offset: 0x2EDE2, size: 0x8, addend: 0x0, symName: __ZNSt3__111char_traitsIcE3eofB8ne200100Ev, symObjAddr: 0x25DF8, symBinAddr: 0x100028EC0, symSize: 0x8 }
  - { offset: 0x2EE28, size: 0x8, addend: 0x0, symName: __ZNKSt3__15ctypeIcE5widenB8ne200100Ec, symObjAddr: 0x25E2C, symBinAddr: 0x100028EF4, symSize: 0x34 }
  - { offset: 0x2EE5D, size: 0x8, addend: 0x0, symName: __ZNSt3__18ios_base8setstateB8ne200100Ej, symObjAddr: 0x25E60, symBinAddr: 0x100028F28, symSize: 0x34 }
  - { offset: 0x2EE94, size: 0x8, addend: 0x0, symName: __ZNSt3__16vectorIhNS_9allocatorIhEEED2B8ne200100Ev, symObjAddr: 0x25EB8, symBinAddr: 0x100028F80, symSize: 0x40 }
  - { offset: 0x2EEBD, size: 0x8, addend: 0x0, symName: __Z8example1v, symObjAddr: 0x25EF8, symBinAddr: 0x100028FC0, symSize: 0x410 }
  - { offset: 0x2EF25, size: 0x8, addend: 0x0, symName: __ZNSt3__16vectorINS_10shared_ptrI8GeometryEENS_9allocatorIS3_EEEC1B8ne200100ERKS6_, symObjAddr: 0x26308, symBinAddr: 0x1000293D0, symSize: 0x34 }
  - { offset: 0x2EF5E, size: 0x8, addend: 0x0, symName: __ZNSt3__16vectorINS_10shared_ptrI8GeometryEENS_9allocatorIS3_EEE9push_backB8ne200100EOS3_, symObjAddr: 0x2633C, symBinAddr: 0x100029404, symSize: 0x2C }
  - { offset: 0x2EFBF, size: 0x8, addend: 0x0, symName: __ZNSt3__110shared_ptrI11LightSourceEC1B8ne200100I10PointLightTnNS_9enable_ifIXsr17__compatible_withIT_S1_EE5valueEiE4typeELi0EEEONS0_IS6_EE, symObjAddr: 0x263B0, symBinAddr: 0x100029478, symSize: 0x34 }
  - { offset: 0x2F007, size: 0x8, addend: 0x0, symName: __ZNSt3__16vectorINS_10shared_ptrI11LightSourceEENS_9allocatorIS3_EEEC1B8ne200100ESt16initializer_listIS3_E, symObjAddr: 0x263E4, symBinAddr: 0x1000294AC, symSize: 0x3C }
  - { offset: 0x2F040, size: 0x8, addend: 0x0, symName: __ZNSt3__110shared_ptrI10PointLightED1B8ne200100Ev, symObjAddr: 0x26420, symBinAddr: 0x1000294E8, symSize: 0x2C }
  - { offset: 0x2F06A, size: 0x8, addend: 0x0, symName: __ZNSt3__16vectorINS_10shared_ptrI11LightSourceEENS_9allocatorIS3_EEEC1B8ne200100ERKS6_, symObjAddr: 0x2644C, symBinAddr: 0x100029514, symSize: 0x34 }
  - { offset: 0x2F0A3, size: 0x8, addend: 0x0, symName: __ZN5SceneC1ENSt3__16vectorINS0_10shared_ptrI8GeometryEENS0_9allocatorIS4_EEEENS1_INS2_I11LightSourceEENS5_IS9_EEEEd, symObjAddr: 0x26480, symBinAddr: 0x100029548, symSize: 0x44 }
  - { offset: 0x2F0F9, size: 0x8, addend: 0x0, symName: __ZNSt3__16vectorINS_10shared_ptrI11LightSourceEENS_9allocatorIS3_EEED1B8ne200100Ev, symObjAddr: 0x264C4, symBinAddr: 0x10002958C, symSize: 0x2C }
  - { offset: 0x2F129, size: 0x8, addend: 0x0, symName: __ZN5SceneC1ERKS_, symObjAddr: 0x264F0, symBinAddr: 0x1000295B8, symSize: 0x34 }
  - { offset: 0x2F15E, size: 0x8, addend: 0x0, symName: __ZN5SceneD1Ev, symObjAddr: 0x26524, symBinAddr: 0x1000295EC, symSize: 0x2C }
  - { offset: 0x2F18A, size: 0x8, addend: 0x0, symName: __ZNSt3__16vectorINS_10shared_ptrI8GeometryEENS_9allocatorIS3_EEEC2B8ne200100ERKS6_, symObjAddr: 0x26550, symBinAddr: 0x100029618, symSize: 0x74 }
  - { offset: 0x2F1C3, size: 0x8, addend: 0x0, symName: __ZNSt3__116allocator_traitsINS_9allocatorINS_10shared_ptrI8GeometryEEEEE37select_on_container_copy_constructionB8ne200100IS5_vTnNS_9enable_ifIXntsr43__has_select_on_container_copy_constructionIKT_EE5valueEiE4typeELi0EEES5_RKS5_, symObjAddr: 0x265C4, symBinAddr: 0x10002968C, symSize: 0x10 }
  - { offset: 0x2F1F7, size: 0x8, addend: 0x0, symName: __ZNSt3__16vectorINS_10shared_ptrI8GeometryEENS_9allocatorIS3_EEE16__init_with_sizeB8ne200100IPS3_S8_EEvT_T0_m, symObjAddr: 0x265D4, symBinAddr: 0x10002969C, symSize: 0xB4 }
  - { offset: 0x2F26B, size: 0x8, addend: 0x0, symName: __ZNSt3__16vectorINS_10shared_ptrI8GeometryEENS_9allocatorIS3_EEE18__construct_at_endIPS3_S8_EEvT_T0_m, symObjAddr: 0x26688, symBinAddr: 0x100029750, symSize: 0x88 }
  - { offset: 0x2F301, size: 0x8, addend: 0x0, symName: __ZNSt3__14pairIPNS_10shared_ptrI8GeometryEES4_EC1B8ne200100IS4_S4_TnNS_9enable_ifIXclsr10_CheckArgsE23__is_pair_constructibleIT_T0_EEEiE4typeELi0EEEOS8_OS9_, symObjAddr: 0x26918, symBinAddr: 0x1000299E0, symSize: 0x3C }
  - { offset: 0x2F35F, size: 0x8, addend: 0x0, symName: __ZNSt3__14pairIPNS_10shared_ptrI8GeometryEES4_EC2B8ne200100IS4_S4_TnNS_9enable_ifIXclsr10_CheckArgsE23__is_pair_constructibleIT_T0_EEEiE4typeELi0EEEOS8_OS9_, symObjAddr: 0x26954, symBinAddr: 0x100029A1C, symSize: 0x34 }
  - { offset: 0x2F3BD, size: 0x8, addend: 0x0, symName: __ZNSt3__116allocator_traitsINS_9allocatorINS_10shared_ptrI8GeometryEEEEE9constructB8ne200100IS4_JRS4_ETnNS_9enable_ifIXsr15__has_constructIS5_PT_DpT0_EE5valueEiE4typeELi0EEEvRS5_SB_DpOSC_, symObjAddr: 0x26988, symBinAddr: 0x100029A50, symSize: 0x34 }
  - { offset: 0x2F419, size: 0x8, addend: 0x0, symName: __ZNSt3__19allocatorINS_10shared_ptrI8GeometryEEE9constructB8ne200100IS3_JRS3_EEEvPT_DpOT0_, symObjAddr: 0x269BC, symBinAddr: 0x100029A84, symSize: 0x30 }
  - { offset: 0x2F46F, size: 0x8, addend: 0x0, symName: __ZNSt3__16vectorINS_10shared_ptrI8GeometryEENS_9allocatorIS3_EEE12emplace_backIJS3_EEERS3_DpOT_, symObjAddr: 0x269EC, symBinAddr: 0x100029AB4, symSize: 0x88 }
  - { offset: 0x2F4BE, size: 0x8, addend: 0x0, symName: __ZNSt3__16vectorINS_10shared_ptrI8GeometryEENS_9allocatorIS3_EEE22__construct_one_at_endB8ne200100IJS3_EEEvDpOT_, symObjAddr: 0x26A74, symBinAddr: 0x100029B3C, symSize: 0x84 }
  - { offset: 0x2F50D, size: 0x8, addend: 0x0, symName: __ZNSt3__16vectorINS_10shared_ptrI8GeometryEENS_9allocatorIS3_EEE24__emplace_back_slow_pathIJS3_EEEPS3_DpOT_, symObjAddr: 0x26AF8, symBinAddr: 0x100029BC0, symSize: 0xD0 }
  - { offset: 0x2F55C, size: 0x8, addend: 0x0, symName: __ZNSt3__116allocator_traitsINS_9allocatorINS_10shared_ptrI8GeometryEEEEE9constructB8ne200100IS4_JS4_ETnNS_9enable_ifIXsr15__has_constructIS5_PT_DpT0_EE5valueEiE4typeELi0EEEvRS5_SA_DpOSB_, symObjAddr: 0x26BC8, symBinAddr: 0x100029C90, symSize: 0x34 }
  - { offset: 0x2F5B8, size: 0x8, addend: 0x0, symName: __ZNSt3__19allocatorINS_10shared_ptrI8GeometryEEE9constructB8ne200100IS3_JS3_EEEvPT_DpOT0_, symObjAddr: 0x26BFC, symBinAddr: 0x100029CC4, symSize: 0x30 }
  - { offset: 0x2F60E, size: 0x8, addend: 0x0, symName: __ZNSt3__110shared_ptrI8GeometryEC1B8ne200100EOS2_, symObjAddr: 0x26C2C, symBinAddr: 0x100029CF4, symSize: 0x34 }
  - { offset: 0x2F647, size: 0x8, addend: 0x0, symName: __ZNSt3__110shared_ptrI8GeometryEC2B8ne200100EOS2_, symObjAddr: 0x26C60, symBinAddr: 0x100029D28, symSize: 0x40 }
  - { offset: 0x2F680, size: 0x8, addend: 0x0, symName: __ZNKSt3__16vectorINS_10shared_ptrI8GeometryEENS_9allocatorIS3_EEE11__recommendB8ne200100Em, symObjAddr: 0x26CA0, symBinAddr: 0x100029D68, symSize: 0xA8 }
  - { offset: 0x2F6D3, size: 0x8, addend: 0x0, symName: __ZNSt3__114__split_bufferINS_10shared_ptrI8GeometryEERNS_9allocatorIS3_EEEC1EmmS6_, symObjAddr: 0x26D48, symBinAddr: 0x100029E10, symSize: 0x44 }
  - { offset: 0x2F727, size: 0x8, addend: 0x0, symName: __ZNSt3__16vectorINS_10shared_ptrI8GeometryEENS_9allocatorIS3_EEE26__swap_out_circular_bufferERNS_14__split_bufferIS3_RS5_EE, symObjAddr: 0x26D8C, symBinAddr: 0x100029E54, symSize: 0x104 }
  - { offset: 0x2F76B, size: 0x8, addend: 0x0, symName: __ZNSt3__114__split_bufferINS_10shared_ptrI8GeometryEERNS_9allocatorIS3_EEED1Ev, symObjAddr: 0x26E90, symBinAddr: 0x100029F58, symSize: 0x2C }
  - { offset: 0x2F795, size: 0x8, addend: 0x0, symName: __ZNSt3__114__split_bufferINS_10shared_ptrI8GeometryEERNS_9allocatorIS3_EEEC2EmmS6_, symObjAddr: 0x26F3C, symBinAddr: 0x10002A004, symSize: 0xB8 }
  - { offset: 0x2F806, size: 0x8, addend: 0x0, symName: __ZNSt3__114__split_bufferINS_10shared_ptrI8GeometryEERNS_9allocatorIS3_EEED2Ev, symObjAddr: 0x27090, symBinAddr: 0x10002A158, symSize: 0x7C }
  - { offset: 0x2F830, size: 0x8, addend: 0x0, symName: __ZNSt3__114__split_bufferINS_10shared_ptrI8GeometryEERNS_9allocatorIS3_EEE5clearB8ne200100Ev, symObjAddr: 0x2710C, symBinAddr: 0x10002A1D4, symSize: 0x28 }
  - { offset: 0x2F856, size: 0x8, addend: 0x0, symName: __ZNKSt3__114__split_bufferINS_10shared_ptrI8GeometryEERNS_9allocatorIS3_EEE8capacityB8ne200100Ev, symObjAddr: 0x27134, symBinAddr: 0x10002A1FC, symSize: 0x28 }
  - { offset: 0x2F87C, size: 0x8, addend: 0x0, symName: __ZNSt3__114__split_bufferINS_10shared_ptrI8GeometryEERNS_9allocatorIS3_EEE17__destruct_at_endB8ne200100EPS3_, symObjAddr: 0x2715C, symBinAddr: 0x10002A224, symSize: 0x2C }
  - { offset: 0x2F8B0, size: 0x8, addend: 0x0, symName: __ZNSt3__114__split_bufferINS_10shared_ptrI8GeometryEERNS_9allocatorIS3_EEE17__destruct_at_endB8ne200100EPS3_NS_17integral_constantIbLb0EEE, symObjAddr: 0x27188, symBinAddr: 0x10002A250, symSize: 0x78 }
  - { offset: 0x2F8EF, size: 0x8, addend: 0x0, symName: __ZNSt3__19allocatorI10PointLightEC1B8ne200100Ev, symObjAddr: 0x272D0, symBinAddr: 0x10002A398, symSize: 0x2C }
  - { offset: 0x2F96A, size: 0x8, addend: 0x0, symName: __ZNSt3__118__allocation_guardINS_9allocatorINS_20__shared_ptr_emplaceI10PointLightNS1_IS3_EEEEEEEC1B8ne200100IS4_EET_m, symObjAddr: 0x272FC, symBinAddr: 0x10002A3C4, symSize: 0x34 }
  - { offset: 0x2F9B9, size: 0x8, addend: 0x0, symName: __ZNKSt3__118__allocation_guardINS_9allocatorINS_20__shared_ptr_emplaceI10PointLightNS1_IS3_EEEEEEE5__getB8ne200100Ev, symObjAddr: 0x27330, symBinAddr: 0x10002A3F8, symSize: 0x18 }
  - { offset: 0x2F9E5, size: 0x8, addend: 0x0, symName: __ZNSt3__120__shared_ptr_emplaceI10PointLightNS_9allocatorIS1_EEEC1B8ne200100IJ6VectordES3_TnNS_9enable_ifIXntsr7is_sameINT0_10value_typeENS_19__for_overwrite_tagEEE5valueEiE4typeELi0EEES3_DpOT_, symObjAddr: 0x27348, symBinAddr: 0x10002A410, symSize: 0x3C }
  - { offset: 0x2FA58, size: 0x8, addend: 0x0, symName: __ZNSt3__118__allocation_guardINS_9allocatorINS_20__shared_ptr_emplaceI10PointLightNS1_IS3_EEEEEEE13__release_ptrB8ne200100Ev, symObjAddr: 0x27384, symBinAddr: 0x10002A44C, symSize: 0x24 }
  - { offset: 0x2FA8C, size: 0x8, addend: 0x0, symName: __ZNSt3__110shared_ptrI10PointLightE27__create_with_control_blockB8ne200100IS1_NS_20__shared_ptr_emplaceIS1_NS_9allocatorIS1_EEEEEES2_PT_PT0_, symObjAddr: 0x273A8, symBinAddr: 0x10002A470, symSize: 0xA4 }
  - { offset: 0x2FAE1, size: 0x8, addend: 0x0, symName: __ZNSt3__120__shared_ptr_emplaceI10PointLightNS_9allocatorIS1_EEE10__get_elemB8ne200100Ev, symObjAddr: 0x2744C, symBinAddr: 0x10002A514, symSize: 0x28 }
  - { offset: 0x2FB07, size: 0x8, addend: 0x0, symName: __ZNSt3__118__allocation_guardINS_9allocatorINS_20__shared_ptr_emplaceI10PointLightNS1_IS3_EEEEEEED1B8ne200100Ev, symObjAddr: 0x27474, symBinAddr: 0x10002A53C, symSize: 0x2C }
  - { offset: 0x2FB31, size: 0x8, addend: 0x0, symName: __ZNSt3__118__allocation_guardINS_9allocatorINS_20__shared_ptr_emplaceI10PointLightNS1_IS3_EEEEEEEC2B8ne200100IS4_EET_m, symObjAddr: 0x274A0, symBinAddr: 0x10002A568, symSize: 0x50 }
  - { offset: 0x2FB86, size: 0x8, addend: 0x0, symName: __ZNSt3__19allocatorINS_20__shared_ptr_emplaceI10PointLightNS0_IS2_EEEEEC1B8ne200100IS2_EERKNS0_IT_EE, symObjAddr: 0x274F0, symBinAddr: 0x10002A5B8, symSize: 0x34 }
  - { offset: 0x2FBC4, size: 0x8, addend: 0x0, symName: __ZNSt3__116allocator_traitsINS_9allocatorINS_20__shared_ptr_emplaceI10PointLightNS1_IS3_EEEEEEE8allocateB8ne200100ERS6_m, symObjAddr: 0x27524, symBinAddr: 0x10002A5EC, symSize: 0x2C }
  - { offset: 0x2FBF7, size: 0x8, addend: 0x0, symName: __ZNSt3__19allocatorINS_20__shared_ptr_emplaceI10PointLightNS0_IS2_EEEEEC2B8ne200100IS2_EERKNS0_IT_EE, symObjAddr: 0x27550, symBinAddr: 0x10002A618, symSize: 0x30 }
  - { offset: 0x2FC35, size: 0x8, addend: 0x0, symName: __ZNSt3__116__non_trivial_ifILb1ENS_9allocatorINS_20__shared_ptr_emplaceI10PointLightNS1_IS3_EEEEEEEC2B8ne200100Ev, symObjAddr: 0x27580, symBinAddr: 0x10002A648, symSize: 0x14 }
  - { offset: 0x2FC5F, size: 0x8, addend: 0x0, symName: __ZNSt3__19allocatorINS_20__shared_ptr_emplaceI10PointLightNS0_IS2_EEEEE8allocateB8ne200100Em, symObjAddr: 0x27594, symBinAddr: 0x10002A65C, symSize: 0x50 }
  - { offset: 0x2FC9E, size: 0x8, addend: 0x0, symName: __ZNSt3__116allocator_traitsINS_9allocatorINS_20__shared_ptr_emplaceI10PointLightNS1_IS3_EEEEEEE8max_sizeB8ne200100IS6_TnNS_9enable_ifIXsr14__has_max_sizeIKT_EE5valueEiE4typeELi0EEEmRKS6_, symObjAddr: 0x275E4, symBinAddr: 0x10002A6AC, symSize: 0x24 }
  - { offset: 0x2FCD1, size: 0x8, addend: 0x0, symName: __ZNKSt3__19allocatorINS_20__shared_ptr_emplaceI10PointLightNS0_IS2_EEEEE8max_sizeB8ne200100Ev, symObjAddr: 0x27678, symBinAddr: 0x10002A740, symSize: 0x20 }
  - { offset: 0x2FCF7, size: 0x8, addend: 0x0, symName: __ZNSt3__120__shared_ptr_emplaceI10PointLightNS_9allocatorIS1_EEEC2B8ne200100IJ6VectordES3_TnNS_9enable_ifIXntsr7is_sameINT0_10value_typeENS_19__for_overwrite_tagEEE5valueEiE4typeELi0EEES3_DpOT_, symObjAddr: 0x27698, symBinAddr: 0x10002A760, symSize: 0xC4 }
  - { offset: 0x2FD89, size: 0x8, addend: 0x0, symName: __ZNSt3__120__shared_ptr_emplaceI10PointLightNS_9allocatorIS1_EEE8_StorageC1B8ne200100EOS3_, symObjAddr: 0x2775C, symBinAddr: 0x10002A824, symSize: 0x34 }
  - { offset: 0x2FDC1, size: 0x8, addend: 0x0, symName: __ZNSt3__120__shared_ptr_emplaceI10PointLightNS_9allocatorIS1_EEE11__get_allocB8ne200100Ev, symObjAddr: 0x27790, symBinAddr: 0x10002A858, symSize: 0x28 }
  - { offset: 0x2FDED, size: 0x8, addend: 0x0, symName: __ZNSt3__116allocator_traitsINS_9allocatorI10PointLightEEE9constructB8ne200100IS2_J6VectordETnNS_9enable_ifIXsr15__has_constructIS3_PT_DpT0_EE5valueEiE4typeELi0EEEvRS3_S9_DpOSA_, symObjAddr: 0x277B8, symBinAddr: 0x10002A880, symSize: 0x3C }
  - { offset: 0x2FE5D, size: 0x8, addend: 0x0, symName: __ZNSt3__120__shared_ptr_emplaceI10PointLightNS_9allocatorIS1_EEE8_StorageD1B8ne200100Ev, symObjAddr: 0x277F4, symBinAddr: 0x10002A8BC, symSize: 0x2C }
  - { offset: 0x2FE87, size: 0x8, addend: 0x0, symName: __ZNSt3__120__shared_ptr_emplaceI10PointLightNS_9allocatorIS1_EEED1Ev, symObjAddr: 0x27820, symBinAddr: 0x10002A8E8, symSize: 0x2C }
  - { offset: 0x2FEB3, size: 0x8, addend: 0x0, symName: __ZNSt3__120__shared_ptr_emplaceI10PointLightNS_9allocatorIS1_EEED0Ev, symObjAddr: 0x2784C, symBinAddr: 0x10002A914, symSize: 0x34 }
  - { offset: 0x2FEDF, size: 0x8, addend: 0x0, symName: __ZNSt3__120__shared_ptr_emplaceI10PointLightNS_9allocatorIS1_EEE16__on_zero_sharedEv, symObjAddr: 0x27880, symBinAddr: 0x10002A948, symSize: 0x24 }
  - { offset: 0x2FF05, size: 0x8, addend: 0x0, symName: __ZNSt3__120__shared_ptr_emplaceI10PointLightNS_9allocatorIS1_EEE21__on_zero_shared_weakEv, symObjAddr: 0x278A4, symBinAddr: 0x10002A96C, symSize: 0x5C }
  - { offset: 0x2FF44, size: 0x8, addend: 0x0, symName: __ZNSt3__120__shared_ptr_emplaceI10PointLightNS_9allocatorIS1_EEE8_StorageC2B8ne200100EOS3_, symObjAddr: 0x27900, symBinAddr: 0x10002A9C8, symSize: 0x30 }
  - { offset: 0x2FF7C, size: 0x8, addend: 0x0, symName: __ZNSt3__120__shared_ptr_emplaceI10PointLightNS_9allocatorIS1_EEE8_Storage11__get_allocB8ne200100Ev, symObjAddr: 0x27930, symBinAddr: 0x10002A9F8, symSize: 0x14 }
  - { offset: 0x2FFA2, size: 0x8, addend: 0x0, symName: __ZNSt3__19allocatorI10PointLightE9constructB8ne200100IS1_J6VectordEEEvPT_DpOT0_, symObjAddr: 0x27944, symBinAddr: 0x10002AA0C, symSize: 0x3C }
  - { offset: 0x3000B, size: 0x8, addend: 0x0, symName: __ZN10PointLightC1ERK6Vectord, symObjAddr: 0x27980, symBinAddr: 0x10002AA48, symSize: 0x3C }
  - { offset: 0x30051, size: 0x8, addend: 0x0, symName: __ZN10PointLightC2ERK6Vectord, symObjAddr: 0x279BC, symBinAddr: 0x10002AA84, symSize: 0x50 }
  - { offset: 0x30097, size: 0x8, addend: 0x0, symName: __ZN11LightSourceC2ERK6Vectord, symObjAddr: 0x27A0C, symBinAddr: 0x10002AAD4, symSize: 0x48 }
  - { offset: 0x300DD, size: 0x8, addend: 0x0, symName: __ZN10PointLightD1Ev, symObjAddr: 0x27A54, symBinAddr: 0x10002AB1C, symSize: 0x2C }
  - { offset: 0x30109, size: 0x8, addend: 0x0, symName: __ZN10PointLightD0Ev, symObjAddr: 0x27A80, symBinAddr: 0x10002AB48, symSize: 0x34 }
  - { offset: 0x30135, size: 0x8, addend: 0x0, symName: __ZNK11LightSource14GetRandomPointERNSt3__126linear_congruential_engineIjLj48271ELj0ELj2147483647EEERK6Vector, symObjAddr: 0x27AB4, symBinAddr: 0x10002AB7C, symSize: 0x38 }
  - { offset: 0x30177, size: 0x8, addend: 0x0, symName: __ZN11LightSourceD1Ev, symObjAddr: 0x27AEC, symBinAddr: 0x10002ABB4, symSize: 0x2C }
  - { offset: 0x301A1, size: 0x8, addend: 0x0, symName: __ZN11LightSourceD0Ev, symObjAddr: 0x27B18, symBinAddr: 0x10002ABE0, symSize: 0x34 }
  - { offset: 0x301CB, size: 0x8, addend: 0x0, symName: __ZN11LightSourceD2Ev, symObjAddr: 0x27B4C, symBinAddr: 0x10002AC14, symSize: 0x14 }
  - { offset: 0x301F5, size: 0x8, addend: 0x0, symName: __ZN10PointLightD2Ev, symObjAddr: 0x27B60, symBinAddr: 0x10002AC28, symSize: 0x2C }
  - { offset: 0x30221, size: 0x8, addend: 0x0, symName: __ZNSt3__120__shared_ptr_emplaceI10PointLightNS_9allocatorIS1_EEE8_StorageD2B8ne200100Ev, symObjAddr: 0x27B8C, symBinAddr: 0x10002AC54, symSize: 0x2C }
  - { offset: 0x3024B, size: 0x8, addend: 0x0, symName: __ZNSt3__120__shared_ptr_emplaceI10PointLightNS_9allocatorIS1_EEED2Ev, symObjAddr: 0x27BB8, symBinAddr: 0x10002AC80, symSize: 0x48 }
  - { offset: 0x30277, size: 0x8, addend: 0x0, symName: __ZNSt3__120__shared_ptr_emplaceI10PointLightNS_9allocatorIS1_EEE21__on_zero_shared_implB8ne200100IS3_TnNS_9enable_ifIXntsr7is_sameINT_10value_typeENS_19__for_overwrite_tagEEE5valueEiE4typeELi0EEEvv, symObjAddr: 0x27C00, symBinAddr: 0x10002ACC8, symSize: 0x44 }
  - { offset: 0x302C5, size: 0x8, addend: 0x0, symName: __ZNSt3__116allocator_traitsINS_9allocatorI10PointLightEEE7destroyB8ne200100IS2_TnNS_9enable_ifIXsr13__has_destroyIS3_PT_EE5valueEiE4typeELi0EEEvRS3_S8_, symObjAddr: 0x27C44, symBinAddr: 0x10002AD0C, symSize: 0x2C }
  - { offset: 0x30307, size: 0x8, addend: 0x0, symName: __ZNSt3__19allocatorI10PointLightE7destroyB8ne200100EPS1_, symObjAddr: 0x27C70, symBinAddr: 0x10002AD38, symSize: 0x30 }
  - { offset: 0x3033B, size: 0x8, addend: 0x0, symName: __ZNSt3__116allocator_traitsINS_9allocatorINS_20__shared_ptr_emplaceI10PointLightNS1_IS3_EEEEEEE10deallocateB8ne200100ERS6_PS5_m, symObjAddr: 0x27CA0, symBinAddr: 0x10002AD68, symSize: 0x34 }
  - { offset: 0x3037D, size: 0x8, addend: 0x0, symName: __ZNSt3__114pointer_traitsIPNS_20__shared_ptr_emplaceI10PointLightNS_9allocatorIS2_EEEEE10pointer_toB8ne200100ERS5_, symObjAddr: 0x27CD4, symBinAddr: 0x10002AD9C, symSize: 0x14 }
  - { offset: 0x303A0, size: 0x8, addend: 0x0, symName: __ZNSt3__19allocatorINS_20__shared_ptr_emplaceI10PointLightNS0_IS2_EEEEE10deallocateB8ne200100EPS4_m, symObjAddr: 0x27CE8, symBinAddr: 0x10002ADB0, symSize: 0x34 }
  - { offset: 0x303E2, size: 0x8, addend: 0x0, symName: __ZNSt3__110shared_ptrI10PointLightEC1B8ne200100Ev, symObjAddr: 0x27DEC, symBinAddr: 0x10002AEB4, symSize: 0x2C }
  - { offset: 0x3040C, size: 0x8, addend: 0x0, symName: __ZNSt3__110shared_ptrI10PointLightE18__enable_weak_thisB8ne200100Ez, symObjAddr: 0x27E18, symBinAddr: 0x10002AEE0, symSize: 0x10 }
  - { offset: 0x30433, size: 0x8, addend: 0x0, symName: __ZNSt3__110shared_ptrI10PointLightEC2B8ne200100Ev, symObjAddr: 0x27E28, symBinAddr: 0x10002AEF0, symSize: 0x1C }
  - { offset: 0x3045D, size: 0x8, addend: 0x0, symName: __ZNSt3__120__shared_ptr_emplaceI10PointLightNS_9allocatorIS1_EEE8_Storage10__get_elemB8ne200100Ev, symObjAddr: 0x27E44, symBinAddr: 0x10002AF0C, symSize: 0x14 }
  - { offset: 0x30483, size: 0x8, addend: 0x0, symName: __ZNSt3__118__allocation_guardINS_9allocatorINS_20__shared_ptr_emplaceI10PointLightNS1_IS3_EEEEEEED2B8ne200100Ev, symObjAddr: 0x27E58, symBinAddr: 0x10002AF20, symSize: 0x2C }
  - { offset: 0x304AD, size: 0x8, addend: 0x0, symName: __ZNSt3__118__allocation_guardINS_9allocatorINS_20__shared_ptr_emplaceI10PointLightNS1_IS3_EEEEEEE9__destroyB8ne200100Ev, symObjAddr: 0x27E84, symBinAddr: 0x10002AF4C, symSize: 0x44 }
  - { offset: 0x304D3, size: 0x8, addend: 0x0, symName: __ZNSt3__19allocatorI10PointLightEC2B8ne200100Ev, symObjAddr: 0x27EC8, symBinAddr: 0x10002AF90, symSize: 0x2C }
  - { offset: 0x304FD, size: 0x8, addend: 0x0, symName: __ZNSt3__116__non_trivial_ifILb1ENS_9allocatorI10PointLightEEEC2B8ne200100Ev, symObjAddr: 0x27EF4, symBinAddr: 0x10002AFBC, symSize: 0x14 }
  - { offset: 0x30527, size: 0x8, addend: 0x0, symName: __ZNSt3__110shared_ptrI11LightSourceEC2B8ne200100I10PointLightTnNS_9enable_ifIXsr17__compatible_withIT_S1_EE5valueEiE4typeELi0EEEONS0_IS6_EE, symObjAddr: 0x27F08, symBinAddr: 0x10002AFD0, symSize: 0x40 }
  - { offset: 0x3056F, size: 0x8, addend: 0x0, symName: __ZNSt3__16vectorINS_10shared_ptrI11LightSourceEENS_9allocatorIS3_EEEC2B8ne200100ESt16initializer_listIS3_E, symObjAddr: 0x27F48, symBinAddr: 0x10002B010, symSize: 0x84 }
  - { offset: 0x305A8, size: 0x8, addend: 0x0, symName: __ZNSt3__19allocatorINS_10shared_ptrI11LightSourceEEEC1B8ne200100Ev, symObjAddr: 0x27FCC, symBinAddr: 0x10002B094, symSize: 0x2C }
  - { offset: 0x305D2, size: 0x8, addend: 0x0, symName: __ZNSt3__16vectorINS_10shared_ptrI11LightSourceEENS_9allocatorIS3_EEE16__init_with_sizeB8ne200100IPKS3_S9_EEvT_T0_m, symObjAddr: 0x27FF8, symBinAddr: 0x10002B0C0, symSize: 0xB4 }
  - { offset: 0x30646, size: 0x8, addend: 0x0, symName: __ZNKSt16initializer_listINSt3__110shared_ptrI11LightSourceEEE5beginB8ne200100Ev, symObjAddr: 0x280AC, symBinAddr: 0x10002B174, symSize: 0x18 }
  - { offset: 0x3066C, size: 0x8, addend: 0x0, symName: __ZNKSt16initializer_listINSt3__110shared_ptrI11LightSourceEEE3endB8ne200100Ev, symObjAddr: 0x280C4, symBinAddr: 0x10002B18C, symSize: 0x20 }
  - { offset: 0x30692, size: 0x8, addend: 0x0, symName: __ZNKSt16initializer_listINSt3__110shared_ptrI11LightSourceEEE4sizeB8ne200100Ev, symObjAddr: 0x280E4, symBinAddr: 0x10002B1AC, symSize: 0x18 }
  - { offset: 0x306B8, size: 0x8, addend: 0x0, symName: __ZNSt3__19allocatorINS_10shared_ptrI11LightSourceEEEC2B8ne200100Ev, symObjAddr: 0x280FC, symBinAddr: 0x10002B1C4, symSize: 0x2C }
  - { offset: 0x306E2, size: 0x8, addend: 0x0, symName: __ZNSt3__116__non_trivial_ifILb1ENS_9allocatorINS_10shared_ptrI11LightSourceEEEEEC2B8ne200100Ev, symObjAddr: 0x28128, symBinAddr: 0x10002B1F0, symSize: 0x14 }
  - { offset: 0x3070C, size: 0x8, addend: 0x0, symName: __ZNSt3__16vectorINS_10shared_ptrI11LightSourceEENS_9allocatorIS3_EEE16__destroy_vectorC1B8ne200100ERS6_, symObjAddr: 0x2817C, symBinAddr: 0x10002B244, symSize: 0x34 }
  - { offset: 0x30744, size: 0x8, addend: 0x0, symName: __ZNSt3__16vectorINS_10shared_ptrI11LightSourceEENS_9allocatorIS3_EEE11__vallocateB8ne200100Em, symObjAddr: 0x281B0, symBinAddr: 0x10002B278, symSize: 0x8C }
  - { offset: 0x30788, size: 0x8, addend: 0x0, symName: __ZNSt3__16vectorINS_10shared_ptrI11LightSourceEENS_9allocatorIS3_EEE18__construct_at_endIPKS3_S9_EEvT_T0_m, symObjAddr: 0x2823C, symBinAddr: 0x10002B304, symSize: 0x88 }
  - { offset: 0x307FC, size: 0x8, addend: 0x0, symName: __ZNSt3__128__exception_guard_exceptionsINS_6vectorINS_10shared_ptrI11LightSourceEENS_9allocatorIS4_EEE16__destroy_vectorEE10__completeB8ne200100Ev, symObjAddr: 0x282C4, symBinAddr: 0x10002B38C, symSize: 0x1C }
  - { offset: 0x30822, size: 0x8, addend: 0x0, symName: __ZNSt3__128__exception_guard_exceptionsINS_6vectorINS_10shared_ptrI11LightSourceEENS_9allocatorIS4_EEE16__destroy_vectorEED1B8ne200100Ev, symObjAddr: 0x282E0, symBinAddr: 0x10002B3A8, symSize: 0x2C }
  - { offset: 0x3084C, size: 0x8, addend: 0x0, symName: __ZNSt3__128__exception_guard_exceptionsINS_6vectorINS_10shared_ptrI11LightSourceEENS_9allocatorIS4_EEE16__destroy_vectorEEC1B8ne200100ES8_, symObjAddr: 0x2830C, symBinAddr: 0x10002B3D4, symSize: 0x34 }
  - { offset: 0x30884, size: 0x8, addend: 0x0, symName: __ZNSt3__128__exception_guard_exceptionsINS_6vectorINS_10shared_ptrI11LightSourceEENS_9allocatorIS4_EEE16__destroy_vectorEEC2B8ne200100ES8_, symObjAddr: 0x28340, symBinAddr: 0x10002B408, symSize: 0x24 }
  - { offset: 0x308BC, size: 0x8, addend: 0x0, symName: __ZNSt3__16vectorINS_10shared_ptrI11LightSourceEENS_9allocatorIS3_EEE16__destroy_vectorC2B8ne200100ERS6_, symObjAddr: 0x28364, symBinAddr: 0x10002B42C, symSize: 0x20 }
  - { offset: 0x308F4, size: 0x8, addend: 0x0, symName: __ZNKSt3__16vectorINS_10shared_ptrI11LightSourceEENS_9allocatorIS3_EEE8max_sizeB8ne200100Ev, symObjAddr: 0x28384, symBinAddr: 0x10002B44C, symSize: 0x5C }
  - { offset: 0x3091A, size: 0x8, addend: 0x0, symName: __ZNSt3__16vectorINS_10shared_ptrI11LightSourceEENS_9allocatorIS3_EEE20__throw_length_errorB8ne200100Ev, symObjAddr: 0x283E0, symBinAddr: 0x10002B4A8, symSize: 0x14 }
  - { offset: 0x3092E, size: 0x8, addend: 0x0, symName: __ZNKSt3__16vectorINS_10shared_ptrI11LightSourceEENS_9allocatorIS3_EEE14__annotate_newB8ne200100Em, symObjAddr: 0x28434, symBinAddr: 0x10002B4FC, symSize: 0x14 }
  - { offset: 0x3096E, size: 0x8, addend: 0x0, symName: __ZNSt3__116allocator_traitsINS_9allocatorINS_10shared_ptrI11LightSourceEEEEE8max_sizeB8ne200100IS5_TnNS_9enable_ifIXsr14__has_max_sizeIKT_EE5valueEiE4typeELi0EEEmRKS5_, symObjAddr: 0x28448, symBinAddr: 0x10002B510, symSize: 0x24 }
  - { offset: 0x309A1, size: 0x8, addend: 0x0, symName: __ZNKSt3__19allocatorINS_10shared_ptrI11LightSourceEEE8max_sizeB8ne200100Ev, symObjAddr: 0x2846C, symBinAddr: 0x10002B534, symSize: 0x14 }
  - { offset: 0x309C7, size: 0x8, addend: 0x0, symName: __ZNSt3__19allocatorINS_10shared_ptrI11LightSourceEEE8allocateB8ne200100Em, symObjAddr: 0x28480, symBinAddr: 0x10002B548, symSize: 0x50 }
  - { offset: 0x30A16, size: 0x8, addend: 0x0, symName: __ZNSt3__16vectorINS_10shared_ptrI11LightSourceEENS_9allocatorIS3_EEE21_ConstructTransactionC1B8ne200100ERS6_m, symObjAddr: 0x2853C, symBinAddr: 0x10002B604, symSize: 0x3C }
  - { offset: 0x30A5E, size: 0x8, addend: 0x0, symName: __ZNSt3__16vectorINS_10shared_ptrI11LightSourceEENS_9allocatorIS3_EEE21_ConstructTransactionD1B8ne200100Ev, symObjAddr: 0x285F8, symBinAddr: 0x10002B6C0, symSize: 0x2C }
  - { offset: 0x30A88, size: 0x8, addend: 0x0, symName: __ZNSt3__16vectorINS_10shared_ptrI11LightSourceEENS_9allocatorIS3_EEE21_ConstructTransactionC2B8ne200100ERS6_m, symObjAddr: 0x28624, symBinAddr: 0x10002B6EC, symSize: 0x44 }
  - { offset: 0x30AF2, size: 0x8, addend: 0x0, symName: __ZNSt3__14pairIPKNS_10shared_ptrI11LightSourceEES5_EC1B8ne200100IS5_S5_TnNS_9enable_ifIXclsr10_CheckArgsE23__is_pair_constructibleIT_T0_EEEiE4typeELi0EEEOS9_OSA_, symObjAddr: 0x28874, symBinAddr: 0x10002B93C, symSize: 0x3C }
  - { offset: 0x30B50, size: 0x8, addend: 0x0, symName: __ZNSt3__14pairIPKNS_10shared_ptrI11LightSourceEES5_EC2B8ne200100IS5_S5_TnNS_9enable_ifIXclsr10_CheckArgsE23__is_pair_constructibleIT_T0_EEEiE4typeELi0EEEOS9_OSA_, symObjAddr: 0x288B0, symBinAddr: 0x10002B978, symSize: 0x34 }
  - { offset: 0x30BAE, size: 0x8, addend: 0x0, symName: __ZNSt3__118__unwrap_iter_implIPKNS_10shared_ptrI11LightSourceEELb1EE8__unwrapB8ne200100ES5_, symObjAddr: 0x288E4, symBinAddr: 0x10002B9AC, symSize: 0x24 }
  - { offset: 0x30BD1, size: 0x8, addend: 0x0, symName: __ZNSt3__129_AllocatorDestroyRangeReverseINS_9allocatorINS_10shared_ptrI11LightSourceEEEEPS4_EC1B8ne200100ERS5_RS6_S9_, symObjAddr: 0x28968, symBinAddr: 0x10002BA30, symSize: 0x44 }
  - { offset: 0x30C28, size: 0x8, addend: 0x0, symName: __ZNSt3__116allocator_traitsINS_9allocatorINS_10shared_ptrI11LightSourceEEEEE9constructB8ne200100IS4_JRKS4_ETnNS_9enable_ifIXsr15__has_constructIS5_PT_DpT0_EE5valueEiE4typeELi0EEEvRS5_SC_DpOSD_, symObjAddr: 0x289AC, symBinAddr: 0x10002BA74, symSize: 0x34 }
  - { offset: 0x30C84, size: 0x8, addend: 0x0, symName: __ZNSt3__128__exception_guard_exceptionsINS_29_AllocatorDestroyRangeReverseINS_9allocatorINS_10shared_ptrI11LightSourceEEEEPS5_EEE10__completeB8ne200100Ev, symObjAddr: 0x289F4, symBinAddr: 0x10002BABC, symSize: 0x1C }
  - { offset: 0x30CAA, size: 0x8, addend: 0x0, symName: __ZNSt3__128__exception_guard_exceptionsINS_29_AllocatorDestroyRangeReverseINS_9allocatorINS_10shared_ptrI11LightSourceEEEEPS5_EEED1B8ne200100Ev, symObjAddr: 0x28A10, symBinAddr: 0x10002BAD8, symSize: 0x2C }
  - { offset: 0x30CD4, size: 0x8, addend: 0x0, symName: __ZNSt3__128__exception_guard_exceptionsINS_29_AllocatorDestroyRangeReverseINS_9allocatorINS_10shared_ptrI11LightSourceEEEEPS5_EEEC1B8ne200100ES8_, symObjAddr: 0x28A3C, symBinAddr: 0x10002BB04, symSize: 0x34 }
  - { offset: 0x30D0D, size: 0x8, addend: 0x0, symName: __ZNSt3__128__exception_guard_exceptionsINS_29_AllocatorDestroyRangeReverseINS_9allocatorINS_10shared_ptrI11LightSourceEEEEPS5_EEEC2B8ne200100ES8_, symObjAddr: 0x28A70, symBinAddr: 0x10002BB38, symSize: 0x30 }
  - { offset: 0x30D46, size: 0x8, addend: 0x0, symName: __ZNSt3__129_AllocatorDestroyRangeReverseINS_9allocatorINS_10shared_ptrI11LightSourceEEEEPS4_EC2B8ne200100ERS5_RS6_S9_, symObjAddr: 0x28AA0, symBinAddr: 0x10002BB68, symSize: 0x38 }
  - { offset: 0x30D9D, size: 0x8, addend: 0x0, symName: __ZNSt3__19allocatorINS_10shared_ptrI11LightSourceEEE9constructB8ne200100IS3_JRKS3_EEEvPT_DpOT0_, symObjAddr: 0x28AD8, symBinAddr: 0x10002BBA0, symSize: 0x30 }
  - { offset: 0x30DF3, size: 0x8, addend: 0x0, symName: __ZNSt3__128__exception_guard_exceptionsINS_29_AllocatorDestroyRangeReverseINS_9allocatorINS_10shared_ptrI11LightSourceEEEEPS5_EEED2B8ne200100Ev, symObjAddr: 0x28B08, symBinAddr: 0x10002BBD0, symSize: 0x50 }
  - { offset: 0x30E1D, size: 0x8, addend: 0x0, symName: __ZNKSt3__129_AllocatorDestroyRangeReverseINS_9allocatorINS_10shared_ptrI11LightSourceEEEEPS4_EclB8ne200100Ev, symObjAddr: 0x28B58, symBinAddr: 0x10002BC20, symSize: 0x68 }
  - { offset: 0x30E43, size: 0x8, addend: 0x0, symName: __ZNSt3__116reverse_iteratorIPNS_10shared_ptrI11LightSourceEEEC1B8ne200100ES4_, symObjAddr: 0x28C30, symBinAddr: 0x10002BCF8, symSize: 0x34 }
  - { offset: 0x30E7B, size: 0x8, addend: 0x0, symName: __ZNSt3__116allocator_traitsINS_9allocatorINS_10shared_ptrI11LightSourceEEEEE7destroyB8ne200100IS4_TnNS_9enable_ifIXsr13__has_destroyIS5_PT_EE5valueEiE4typeELi0EEEvRS5_SA_, symObjAddr: 0x28CA8, symBinAddr: 0x10002BD70, symSize: 0x2C }
  - { offset: 0x30EBD, size: 0x8, addend: 0x0, symName: __ZNSt3__116reverse_iteratorIPNS_10shared_ptrI11LightSourceEEEppB8ne200100Ev, symObjAddr: 0x28CF8, symBinAddr: 0x10002BDC0, symSize: 0x20 }
  - { offset: 0x30EE3, size: 0x8, addend: 0x0, symName: __ZNKSt3__116reverse_iteratorIPNS_10shared_ptrI11LightSourceEEE4baseB8ne200100Ev, symObjAddr: 0x28D18, symBinAddr: 0x10002BDE0, symSize: 0x18 }
  - { offset: 0x30F09, size: 0x8, addend: 0x0, symName: __ZNSt3__19allocatorINS_10shared_ptrI11LightSourceEEE7destroyB8ne200100EPS3_, symObjAddr: 0x28D30, symBinAddr: 0x10002BDF8, symSize: 0x28 }
  - { offset: 0x30F43, size: 0x8, addend: 0x0, symName: __ZNSt3__119__to_address_helperINS_16reverse_iteratorIPNS_10shared_ptrI11LightSourceEEEEvE6__callB8ne200100ERKS6_, symObjAddr: 0x28D58, symBinAddr: 0x10002BE20, symSize: 0x38 }
  - { offset: 0x30F66, size: 0x8, addend: 0x0, symName: __ZNKSt3__116reverse_iteratorIPNS_10shared_ptrI11LightSourceEEEptB8ne200100Ev, symObjAddr: 0x28D90, symBinAddr: 0x10002BE58, symSize: 0x24 }
  - { offset: 0x30F8C, size: 0x8, addend: 0x0, symName: __ZNKSt3__116reverse_iteratorIPNS_10shared_ptrI11LightSourceEEEdeB8ne200100Ev, symObjAddr: 0x28DB4, symBinAddr: 0x10002BE7C, symSize: 0x28 }
  - { offset: 0x30FC0, size: 0x8, addend: 0x0, symName: __ZNSt3__116reverse_iteratorIPNS_10shared_ptrI11LightSourceEEEC2B8ne200100ES4_, symObjAddr: 0x28DDC, symBinAddr: 0x10002BEA4, symSize: 0x28 }
  - { offset: 0x30FF8, size: 0x8, addend: 0x0, symName: __ZNSt3__118__unwrap_iter_implIPNS_10shared_ptrI11LightSourceEELb1EE8__unwrapB8ne200100ES4_, symObjAddr: 0x28E04, symBinAddr: 0x10002BECC, symSize: 0x24 }
  - { offset: 0x3101B, size: 0x8, addend: 0x0, symName: __ZNSt3__118__unwrap_iter_implIPNS_10shared_ptrI11LightSourceEELb1EE8__rewrapB8ne200100ES4_S4_, symObjAddr: 0x28E28, symBinAddr: 0x10002BEF0, symSize: 0x50 }
  - { offset: 0x3104C, size: 0x8, addend: 0x0, symName: __ZNSt3__16vectorINS_10shared_ptrI11LightSourceEENS_9allocatorIS3_EEE21_ConstructTransactionD2B8ne200100Ev, symObjAddr: 0x28E78, symBinAddr: 0x10002BF40, symSize: 0x20 }
  - { offset: 0x31076, size: 0x8, addend: 0x0, symName: __ZNSt3__128__exception_guard_exceptionsINS_6vectorINS_10shared_ptrI11LightSourceEENS_9allocatorIS4_EEE16__destroy_vectorEED2B8ne200100Ev, symObjAddr: 0x28E98, symBinAddr: 0x10002BF60, symSize: 0x50 }
  - { offset: 0x310A0, size: 0x8, addend: 0x0, symName: __ZNSt3__16vectorINS_10shared_ptrI11LightSourceEENS_9allocatorIS3_EEE16__destroy_vectorclB8ne200100Ev, symObjAddr: 0x28EE8, symBinAddr: 0x10002BFB0, symSize: 0x80 }
  - { offset: 0x310C6, size: 0x8, addend: 0x0, symName: __ZNSt3__16vectorINS_10shared_ptrI11LightSourceEENS_9allocatorIS3_EEE5clearB8ne200100Ev, symObjAddr: 0x28F68, symBinAddr: 0x10002C030, symSize: 0x48 }
  - { offset: 0x310FB, size: 0x8, addend: 0x0, symName: __ZNKSt3__16vectorINS_10shared_ptrI11LightSourceEENS_9allocatorIS3_EEE17__annotate_deleteB8ne200100Ev, symObjAddr: 0x28FB0, symBinAddr: 0x10002C078, symSize: 0x10 }
  - { offset: 0x31121, size: 0x8, addend: 0x0, symName: __ZNSt3__116allocator_traitsINS_9allocatorINS_10shared_ptrI11LightSourceEEEEE10deallocateB8ne200100ERS5_PS4_m, symObjAddr: 0x28FC0, symBinAddr: 0x10002C088, symSize: 0x34 }
  - { offset: 0x31163, size: 0x8, addend: 0x0, symName: __ZNKSt3__16vectorINS_10shared_ptrI11LightSourceEENS_9allocatorIS3_EEE8capacityB8ne200100Ev, symObjAddr: 0x28FF4, symBinAddr: 0x10002C0BC, symSize: 0x28 }
  - { offset: 0x31189, size: 0x8, addend: 0x0, symName: __ZNSt3__16vectorINS_10shared_ptrI11LightSourceEENS_9allocatorIS3_EEE22__base_destruct_at_endB8ne200100EPS3_, symObjAddr: 0x2901C, symBinAddr: 0x10002C0E4, symSize: 0x7C }
  - { offset: 0x311CD, size: 0x8, addend: 0x0, symName: __ZNKSt3__16vectorINS_10shared_ptrI11LightSourceEENS_9allocatorIS3_EEE17__annotate_shrinkB8ne200100Em, symObjAddr: 0x29098, symBinAddr: 0x10002C160, symSize: 0x14 }
  - { offset: 0x31202, size: 0x8, addend: 0x0, symName: __ZNSt3__19allocatorINS_10shared_ptrI11LightSourceEEE10deallocateB8ne200100EPS3_m, symObjAddr: 0x290AC, symBinAddr: 0x10002C174, symSize: 0x34 }
  - { offset: 0x31244, size: 0x8, addend: 0x0, symName: __ZNSt3__110shared_ptrI10PointLightED2B8ne200100Ev, symObjAddr: 0x291AC, symBinAddr: 0x10002C274, symSize: 0x4C }
  - { offset: 0x3126E, size: 0x8, addend: 0x0, symName: __ZNSt3__16vectorINS_10shared_ptrI11LightSourceEENS_9allocatorIS3_EEEC2B8ne200100ERKS6_, symObjAddr: 0x291F8, symBinAddr: 0x10002C2C0, symSize: 0x74 }
  - { offset: 0x312A7, size: 0x8, addend: 0x0, symName: __ZNSt3__116allocator_traitsINS_9allocatorINS_10shared_ptrI11LightSourceEEEEE37select_on_container_copy_constructionB8ne200100IS5_vTnNS_9enable_ifIXntsr43__has_select_on_container_copy_constructionIKT_EE5valueEiE4typeELi0EEES5_RKS5_, symObjAddr: 0x2926C, symBinAddr: 0x10002C334, symSize: 0x10 }
  - { offset: 0x312DB, size: 0x8, addend: 0x0, symName: __ZNSt3__16vectorINS_10shared_ptrI11LightSourceEENS_9allocatorIS3_EEE16__init_with_sizeB8ne200100IPS3_S8_EEvT_T0_m, symObjAddr: 0x2927C, symBinAddr: 0x10002C344, symSize: 0xB4 }
  - { offset: 0x3134F, size: 0x8, addend: 0x0, symName: __ZNSt3__16vectorINS_10shared_ptrI11LightSourceEENS_9allocatorIS3_EEE18__construct_at_endIPS3_S8_EEvT_T0_m, symObjAddr: 0x29330, symBinAddr: 0x10002C3F8, symSize: 0x88 }
  - { offset: 0x313E5, size: 0x8, addend: 0x0, symName: __ZNSt3__14pairIPNS_10shared_ptrI11LightSourceEES4_EC1B8ne200100IS4_S4_TnNS_9enable_ifIXclsr10_CheckArgsE23__is_pair_constructibleIT_T0_EEEiE4typeELi0EEEOS8_OS9_, symObjAddr: 0x295C0, symBinAddr: 0x10002C688, symSize: 0x3C }
  - { offset: 0x31443, size: 0x8, addend: 0x0, symName: __ZNSt3__14pairIPNS_10shared_ptrI11LightSourceEES4_EC2B8ne200100IS4_S4_TnNS_9enable_ifIXclsr10_CheckArgsE23__is_pair_constructibleIT_T0_EEEiE4typeELi0EEEOS8_OS9_, symObjAddr: 0x295FC, symBinAddr: 0x10002C6C4, symSize: 0x34 }
  - { offset: 0x314A1, size: 0x8, addend: 0x0, symName: __ZNSt3__116allocator_traitsINS_9allocatorINS_10shared_ptrI11LightSourceEEEEE9constructB8ne200100IS4_JRS4_ETnNS_9enable_ifIXsr15__has_constructIS5_PT_DpT0_EE5valueEiE4typeELi0EEEvRS5_SB_DpOSC_, symObjAddr: 0x29630, symBinAddr: 0x10002C6F8, symSize: 0x34 }
  - { offset: 0x314FD, size: 0x8, addend: 0x0, symName: __ZNSt3__19allocatorINS_10shared_ptrI11LightSourceEEE9constructB8ne200100IS3_JRS3_EEEvPT_DpOT0_, symObjAddr: 0x29664, symBinAddr: 0x10002C72C, symSize: 0x30 }
  - { offset: 0x31553, size: 0x8, addend: 0x0, symName: __ZN5SceneC2ENSt3__16vectorINS0_10shared_ptrI8GeometryEENS0_9allocatorIS4_EEEENS1_INS2_I11LightSourceEENS5_IS9_EEEEd, symObjAddr: 0x29694, symBinAddr: 0x10002C75C, symSize: 0x60 }
  - { offset: 0x315A9, size: 0x8, addend: 0x0, symName: __ZNSt3__16vectorINS_10shared_ptrI8GeometryEENS_9allocatorIS3_EEEC1B8ne200100EOS6_, symObjAddr: 0x296F4, symBinAddr: 0x10002C7BC, symSize: 0x34 }
  - { offset: 0x315E2, size: 0x8, addend: 0x0, symName: __ZNSt3__16vectorINS_10shared_ptrI11LightSourceEENS_9allocatorIS3_EEEC1B8ne200100EOS6_, symObjAddr: 0x29728, symBinAddr: 0x10002C7F0, symSize: 0x34 }
  - { offset: 0x3161B, size: 0x8, addend: 0x0, symName: __ZNSt3__16vectorINS_10shared_ptrI8GeometryEENS_9allocatorIS3_EEEC2B8ne200100EOS6_, symObjAddr: 0x2975C, symBinAddr: 0x10002C824, symSize: 0x60 }
  - { offset: 0x31654, size: 0x8, addend: 0x0, symName: __ZNSt3__16vectorINS_10shared_ptrI11LightSourceEENS_9allocatorIS3_EEEC2B8ne200100EOS6_, symObjAddr: 0x297BC, symBinAddr: 0x10002C884, symSize: 0x60 }
  - { offset: 0x3168D, size: 0x8, addend: 0x0, symName: __ZNSt3__16vectorINS_10shared_ptrI11LightSourceEENS_9allocatorIS3_EEED2B8ne200100Ev, symObjAddr: 0x2981C, symBinAddr: 0x10002C8E4, symSize: 0x40 }
  - { offset: 0x316B7, size: 0x8, addend: 0x0, symName: __ZN5SceneC2ERKS_, symObjAddr: 0x2985C, symBinAddr: 0x10002C924, symSize: 0x84 }
  - { offset: 0x316EC, size: 0x8, addend: 0x0, symName: __ZN5SceneD2Ev, symObjAddr: 0x298E0, symBinAddr: 0x10002C9A8, symSize: 0x38 }
  - { offset: 0x31717, size: 0x8, addend: 0x0, symName: __Z8example2v, symObjAddr: 0x29918, symBinAddr: 0x10002C9E0, symSize: 0x7C0 }
  - { offset: 0x3179F, size: 0x8, addend: 0x0, symName: __ZNSt3__16vectorINS_10shared_ptrI8GeometryEENS_9allocatorIS3_EEE6insertB8ne200100INS_11__wrap_iterIPS3_EETnNS_9enable_ifIXaasr31__has_forward_iterator_categoryIT_EE5valuesr16is_constructibleIS3_NS_15iterator_traitsISC_E9referenceEEE5valueEiE4typeELi0EEESA_NS8_IPKS3_EESC_SC_, symObjAddr: 0x2A200, symBinAddr: 0x10002D2C8, symSize: 0x84 }
  - { offset: 0x31801, size: 0x8, addend: 0x0, symName: __ZNSt3__16vectorINS_10shared_ptrI8GeometryEENS_9allocatorIS3_EEE3endB8ne200100Ev, symObjAddr: 0x2A284, symBinAddr: 0x10002D34C, symSize: 0x40 }
  - { offset: 0x3182D, size: 0x8, addend: 0x0, symName: __ZNSt3__111__wrap_iterIPKNS_10shared_ptrI8GeometryEEEC1B8ne200100IPS3_TnNS_9enable_ifIXsr4_AndINS_14is_convertibleIRKT_S5_EENS_7_OrImplIXaantcvbsr7is_sameIRS4_NS_15iterator_traitsISB_E9referenceEEE5valuenesZT1_Li0EEE7_ResultINS_7is_sameISG_SJ_EENSM_ISG_RKu20__remove_reference_tISJ_EEEEEEE5valueEiE4typeELi0EEERKNS0_ISB_EE, symObjAddr: 0x2A2C4, symBinAddr: 0x10002D38C, symSize: 0x34 }
  - { offset: 0x31874, size: 0x8, addend: 0x0, symName: __ZNSt3__16vectorINS_10shared_ptrI8GeometryEENS_9allocatorIS3_EEE5beginB8ne200100Ev, symObjAddr: 0x2A2F8, symBinAddr: 0x10002D3C0, symSize: 0x40 }
  - { offset: 0x318A0, size: 0x8, addend: 0x0, symName: __ZNSt3__120__shared_ptr_emplaceI6SphereNS_9allocatorIS1_EEEC1B8ne200100IJ6VectoriS6_bES3_TnNS_9enable_ifIXntsr7is_sameINT0_10value_typeENS_19__for_overwrite_tagEEE5valueEiE4typeELi0EEES3_DpOT_, symObjAddr: 0x2A418, symBinAddr: 0x10002D4E0, symSize: 0x4C }
  - { offset: 0x31939, size: 0x8, addend: 0x0, symName: __ZNSt3__120__shared_ptr_emplaceI6SphereNS_9allocatorIS1_EEEC2B8ne200100IJ6VectoriS6_bES3_TnNS_9enable_ifIXntsr7is_sameINT0_10value_typeENS_19__for_overwrite_tagEEE5valueEiE4typeELi0EEES3_DpOT_, symObjAddr: 0x2A464, symBinAddr: 0x10002D52C, symSize: 0xD4 }
  - { offset: 0x319F1, size: 0x8, addend: 0x0, symName: __ZNSt3__116allocator_traitsINS_9allocatorI6SphereEEE9constructB8ne200100IS2_J6VectoriS6_bETnNS_9enable_ifIXsr15__has_constructIS3_PT_DpT0_EE5valueEiE4typeELi0EEEvRS3_S9_DpOSA_, symObjAddr: 0x2A538, symBinAddr: 0x10002D600, symSize: 0x4C }
  - { offset: 0x31A89, size: 0x8, addend: 0x0, symName: __ZNSt3__19allocatorI6SphereE9constructB8ne200100IS1_J6VectoriS4_bEEEvPT_DpOT0_, symObjAddr: 0x2A584, symBinAddr: 0x10002D64C, symSize: 0x6C }
  - { offset: 0x31B18, size: 0x8, addend: 0x0, symName: __ZNSt3__120__shared_ptr_emplaceI6SphereNS_9allocatorIS1_EEEC1B8ne200100IJ6VectoriS6_bbdES3_TnNS_9enable_ifIXntsr7is_sameINT0_10value_typeENS_19__for_overwrite_tagEEE5valueEiE4typeELi0EEES3_DpOT_, symObjAddr: 0x2A6E0, symBinAddr: 0x10002D7A8, symSize: 0x5C }
  - { offset: 0x31BD7, size: 0x8, addend: 0x0, symName: __ZNSt3__120__shared_ptr_emplaceI6SphereNS_9allocatorIS1_EEEC2B8ne200100IJ6VectoriS6_bbdES3_TnNS_9enable_ifIXntsr7is_sameINT0_10value_typeENS_19__for_overwrite_tagEEE5valueEiE4typeELi0EEES3_DpOT_, symObjAddr: 0x2A73C, symBinAddr: 0x10002D804, symSize: 0xE4 }
  - { offset: 0x31CB5, size: 0x8, addend: 0x0, symName: __ZNSt3__116allocator_traitsINS_9allocatorI6SphereEEE9constructB8ne200100IS2_J6VectoriS6_bbdETnNS_9enable_ifIXsr15__has_constructIS3_PT_DpT0_EE5valueEiE4typeELi0EEEvRS3_S9_DpOSA_, symObjAddr: 0x2A820, symBinAddr: 0x10002D8E8, symSize: 0x5C }
  - { offset: 0x31D75, size: 0x8, addend: 0x0, symName: __ZNSt3__19allocatorI6SphereE9constructB8ne200100IS1_J6VectoriS4_bbdEEEvPT_DpOT0_, symObjAddr: 0x2A87C, symBinAddr: 0x10002D944, symSize: 0x7C }
  - { offset: 0x31E2A, size: 0x8, addend: 0x0, symName: __ZNSt3__120__shared_ptr_emplaceI6SphereNS_9allocatorIS1_EEEC1B8ne200100IJ6VectordS6_bbiES3_TnNS_9enable_ifIXntsr7is_sameINT0_10value_typeENS_19__for_overwrite_tagEEE5valueEiE4typeELi0EEES3_DpOT_, symObjAddr: 0x2A9E8, symBinAddr: 0x10002DAB0, symSize: 0x5C }
  - { offset: 0x31EE9, size: 0x8, addend: 0x0, symName: __ZNSt3__120__shared_ptr_emplaceI6SphereNS_9allocatorIS1_EEEC2B8ne200100IJ6VectordS6_bbiES3_TnNS_9enable_ifIXntsr7is_sameINT0_10value_typeENS_19__for_overwrite_tagEEE5valueEiE4typeELi0EEES3_DpOT_, symObjAddr: 0x2AA44, symBinAddr: 0x10002DB0C, symSize: 0xE4 }
  - { offset: 0x31FC7, size: 0x8, addend: 0x0, symName: __ZNSt3__116allocator_traitsINS_9allocatorI6SphereEEE9constructB8ne200100IS2_J6VectordS6_bbiETnNS_9enable_ifIXsr15__has_constructIS3_PT_DpT0_EE5valueEiE4typeELi0EEEvRS3_S9_DpOSA_, symObjAddr: 0x2AB28, symBinAddr: 0x10002DBF0, symSize: 0x5C }
  - { offset: 0x32087, size: 0x8, addend: 0x0, symName: __ZNSt3__19allocatorI6SphereE9constructB8ne200100IS1_J6VectordS4_bbiEEEvPT_DpOT0_, symObjAddr: 0x2AB84, symBinAddr: 0x10002DC4C, symSize: 0x7C }
  - { offset: 0x3213C, size: 0x8, addend: 0x0, symName: __ZNSt3__16vectorINS_10shared_ptrI8GeometryEENS_9allocatorIS3_EEE18__insert_with_sizeB8ne200100INS_11__wrap_iterIPS3_EESA_EESA_NS8_IPKS3_EET_T0_l, symObjAddr: 0x2AC00, symBinAddr: 0x10002DCC8, symSize: 0x2C8 }
  - { offset: 0x32222, size: 0x8, addend: 0x0, symName: __ZNSt3__16vectorINS_10shared_ptrI8GeometryEENS_9allocatorIS3_EEE18__construct_at_endINS_11__wrap_iterIPS3_EESA_EEvT_T0_m, symObjAddr: 0x2AF88, symBinAddr: 0x10002E050, symSize: 0x98 }
  - { offset: 0x32296, size: 0x8, addend: 0x0, symName: __ZNSt3__16vectorINS_10shared_ptrI8GeometryEENS_9allocatorIS3_EEE12__move_rangeEPS3_S7_S7_, symObjAddr: 0x2B020, symBinAddr: 0x10002E0E8, symSize: 0x11C }
  - { offset: 0x32350, size: 0x8, addend: 0x0, symName: __ZNSt3__114__split_bufferINS_10shared_ptrI8GeometryEERNS_9allocatorIS3_EEE28__construct_at_end_with_sizeINS_11__wrap_iterIPS3_EEEEvT_m, symObjAddr: 0x2B1E4, symBinAddr: 0x10002E2AC, symSize: 0xCC }
  - { offset: 0x323AA, size: 0x8, addend: 0x0, symName: __ZNSt3__16vectorINS_10shared_ptrI8GeometryEENS_9allocatorIS3_EEE26__swap_out_circular_bufferERNS_14__split_bufferIS3_RS5_EEPS3_, symObjAddr: 0x2B2B0, symBinAddr: 0x10002E378, symSize: 0x178 }
  - { offset: 0x3240C, size: 0x8, addend: 0x0, symName: __ZNSt3__16vectorINS_10shared_ptrI8GeometryEENS_9allocatorIS3_EEE11__make_iterB8ne200100EPS3_, symObjAddr: 0x2B428, symBinAddr: 0x10002E4F0, symSize: 0x30 }
  - { offset: 0x32441, size: 0x8, addend: 0x0, symName: __ZNKSt3__111__wrap_iterIPKNS_10shared_ptrI8GeometryEEE4baseB8ne200100Ev, symObjAddr: 0x2B458, symBinAddr: 0x10002E520, symSize: 0x18 }
  - { offset: 0x32467, size: 0x8, addend: 0x0, symName: __ZNKSt3__111__wrap_iterIPNS_10shared_ptrI8GeometryEEE4baseB8ne200100Ev, symObjAddr: 0x2B470, symBinAddr: 0x10002E538, symSize: 0x18 }
  - { offset: 0x3248D, size: 0x8, addend: 0x0, symName: __ZNSt3__111__wrap_iterIPNS_10shared_ptrI8GeometryEEEpLB8ne200100El, symObjAddr: 0x2B500, symBinAddr: 0x10002E5C8, symSize: 0x28 }
  - { offset: 0x324C6, size: 0x8, addend: 0x0, symName: __ZNSt3__118__unwrap_iter_implINS_11__wrap_iterIPNS_10shared_ptrI8GeometryEEEELb1EE8__unwrapB8ne200100ES6_, symObjAddr: 0x2B654, symBinAddr: 0x10002E71C, symSize: 0x28 }
  - { offset: 0x324E9, size: 0x8, addend: 0x0, symName: __ZNSt3__119__to_address_helperINS_11__wrap_iterIPNS_10shared_ptrI8GeometryEEEEvE6__callB8ne200100ERKS6_, symObjAddr: 0x2B6A0, symBinAddr: 0x10002E768, symSize: 0x30 }
  - { offset: 0x3250C, size: 0x8, addend: 0x0, symName: __ZNSt3__114pointer_traitsINS_11__wrap_iterIPNS_10shared_ptrI8GeometryEEEEE10to_addressB8ne200100ES6_, symObjAddr: 0x2B6D0, symBinAddr: 0x10002E798, symSize: 0x2C }
  - { offset: 0x32539, size: 0x8, addend: 0x0, symName: __ZNKSt3__120__move_backward_implINS_17_ClassicAlgPolicyEEclB8ne200100IPNS_10shared_ptrI8GeometryEES7_S7_EENS_4pairIT_T1_EES9_T0_SA_, symObjAddr: 0x2B834, symBinAddr: 0x10002E8FC, symSize: 0xA0 }
  - { offset: 0x325C0, size: 0x8, addend: 0x0, symName: __ZNSt3__18_IterOpsINS_17_ClassicAlgPolicyEE4nextB8ne200100IPNS_10shared_ptrI8GeometryEEEET_S8_S8_, symObjAddr: 0x2B900, symBinAddr: 0x10002E9C8, symSize: 0x18 }
  - { offset: 0x325F7, size: 0x8, addend: 0x0, symName: __ZNSt3__18_IterOpsINS_17_ClassicAlgPolicyEE11__iter_moveB8ne200100IRPNS_10shared_ptrI8GeometryEETnNS_9enable_ifIXsr12is_referenceIDTdeclsr3stdE7declvalIRT_EEEEE5valueEiE4typeELi0EEEDTclsr3stdE4movedeclsr3stdE7declvalISB_EEEEOSA_, symObjAddr: 0x2B918, symBinAddr: 0x10002E9E0, symSize: 0x28 }
  - { offset: 0x32629, size: 0x8, addend: 0x0, symName: __ZNSt3__110shared_ptrI8GeometryEaSB8ne200100EOS2_, symObjAddr: 0x2B940, symBinAddr: 0x10002EA08, symSize: 0x50 }
  - { offset: 0x3265E, size: 0x8, addend: 0x0, symName: __ZNSt3__18_IterOpsINS_17_ClassicAlgPolicyEE25__validate_iter_referenceB8ne200100IRPNS_10shared_ptrI8GeometryEEEEvv, symObjAddr: 0x2B990, symBinAddr: 0x10002EA58, symSize: 0x4 }
  - { offset: 0x3267C, size: 0x8, addend: 0x0, symName: __ZNSt3__110shared_ptrI8GeometryE4swapB8ne200100ERS2_, symObjAddr: 0x2B994, symBinAddr: 0x10002EA5C, symSize: 0x44 }
  - { offset: 0x326BB, size: 0x8, addend: 0x0, symName: __ZNKSt3__111__copy_implclB8ne200100IPNS_10shared_ptrI8GeometryEES5_S5_EENS_4pairIT_T1_EES7_T0_S8_, symObjAddr: 0x2BB70, symBinAddr: 0x10002EC38, symSize: 0x84 }
  - { offset: 0x32726, size: 0x8, addend: 0x0, symName: __ZNSt3__110shared_ptrI8GeometryEaSB8ne200100ERKS2_, symObjAddr: 0x2BC68, symBinAddr: 0x10002ED30, symSize: 0x50 }
  - { offset: 0x3277D, size: 0x8, addend: 0x0, symName: __ZNSt3__14pairINS_11__wrap_iterIPNS_10shared_ptrI8GeometryEEEES5_EC1B8ne200100IS6_S5_TnNS_9enable_ifIXclsr10_CheckArgsE23__is_pair_constructibleIT_T0_EEEiE4typeELi0EEEOSA_OSB_, symObjAddr: 0x2BCB8, symBinAddr: 0x10002ED80, symSize: 0x3C }
  - { offset: 0x327DB, size: 0x8, addend: 0x0, symName: __ZNSt3__14pairINS_11__wrap_iterIPNS_10shared_ptrI8GeometryEEEES5_EC2B8ne200100IS6_S5_TnNS_9enable_ifIXclsr10_CheckArgsE23__is_pair_constructibleIT_T0_EEEiE4typeELi0EEEOSA_OSB_, symObjAddr: 0x2BCF4, symBinAddr: 0x10002EDBC, symSize: 0x34 }
  - { offset: 0x32839, size: 0x8, addend: 0x0, symName: __ZNSt3__118__unwrap_iter_implINS_11__wrap_iterIPNS_10shared_ptrI8GeometryEEEELb1EE8__rewrapB8ne200100ES6_S5_, symObjAddr: 0x2BD74, symBinAddr: 0x10002EE3C, symSize: 0x5C }
  - { offset: 0x3286A, size: 0x8, addend: 0x0, symName: __ZNKSt3__111__wrap_iterIPNS_10shared_ptrI8GeometryEEEplB8ne200100El, symObjAddr: 0x2BDD0, symBinAddr: 0x10002EE98, symSize: 0x3C }
  - { offset: 0x328BB, size: 0x8, addend: 0x0, symName: __ZNSt3__114__split_bufferINS_10shared_ptrI8GeometryEERNS_9allocatorIS3_EEE21_ConstructTransactionC1B8ne200100EPPS3_m, symObjAddr: 0x2BE0C, symBinAddr: 0x10002EED4, symSize: 0x3C }
  - { offset: 0x32901, size: 0x8, addend: 0x0, symName: __ZNKSt3__111__wrap_iterIPNS_10shared_ptrI8GeometryEEEdeB8ne200100Ev, symObjAddr: 0x2BE48, symBinAddr: 0x10002EF10, symSize: 0x18 }
  - { offset: 0x32927, size: 0x8, addend: 0x0, symName: __ZNSt3__111__wrap_iterIPNS_10shared_ptrI8GeometryEEEppB8ne200100Ev, symObjAddr: 0x2BE60, symBinAddr: 0x10002EF28, symSize: 0x20 }
  - { offset: 0x3294D, size: 0x8, addend: 0x0, symName: __ZNSt3__114__split_bufferINS_10shared_ptrI8GeometryEERNS_9allocatorIS3_EEE21_ConstructTransactionD1B8ne200100Ev, symObjAddr: 0x2BE80, symBinAddr: 0x10002EF48, symSize: 0x2C }
  - { offset: 0x32977, size: 0x8, addend: 0x0, symName: __ZNSt3__114__split_bufferINS_10shared_ptrI8GeometryEERNS_9allocatorIS3_EEE21_ConstructTransactionC2B8ne200100EPPS3_m, symObjAddr: 0x2BEAC, symBinAddr: 0x10002EF74, symSize: 0x44 }
  - { offset: 0x329BD, size: 0x8, addend: 0x0, symName: __ZNSt3__114__split_bufferINS_10shared_ptrI8GeometryEERNS_9allocatorIS3_EEE21_ConstructTransactionD2B8ne200100Ev, symObjAddr: 0x2BEF0, symBinAddr: 0x10002EFB8, symSize: 0x20 }
  - { offset: 0x329E7, size: 0x8, addend: 0x0, symName: __ZNSt3__111__wrap_iterIPNS_10shared_ptrI8GeometryEEEC1B8ne200100ES4_, symObjAddr: 0x2BF10, symBinAddr: 0x10002EFD8, symSize: 0x34 }
  - { offset: 0x32A1F, size: 0x8, addend: 0x0, symName: __ZNSt3__111__wrap_iterIPNS_10shared_ptrI8GeometryEEEC2B8ne200100ES4_, symObjAddr: 0x2BF44, symBinAddr: 0x10002F00C, symSize: 0x20 }
  - { offset: 0x32A57, size: 0x8, addend: 0x0, symName: __ZNSt3__16vectorINS_10shared_ptrI8GeometryEENS_9allocatorIS3_EEE26__add_alignment_assumptionB8ne200100IPS3_TnNS_9enable_ifIXsr10is_pointerIT_EE5valueEiE4typeELi0EEES8_SA_, symObjAddr: 0x2BFDC, symBinAddr: 0x10002F0A4, symSize: 0x14 }
  - { offset: 0x32A8A, size: 0x8, addend: 0x0, symName: __ZNSt3__111__wrap_iterIPKNS_10shared_ptrI8GeometryEEEC2B8ne200100IPS3_TnNS_9enable_ifIXsr4_AndINS_14is_convertibleIRKT_S5_EENS_7_OrImplIXaantcvbsr7is_sameIRS4_NS_15iterator_traitsISB_E9referenceEEE5valuenesZT1_Li0EEE7_ResultINS_7is_sameISG_SJ_EENSM_ISG_RKu20__remove_reference_tISJ_EEEEEEE5valueEiE4typeELi0EEERKNS0_ISB_EE, symObjAddr: 0x2BFF0, symBinAddr: 0x10002F0B8, symSize: 0x24 }
  - { offset: 0x32AD0, size: 0x8, addend: 0x0, symName: __Z8example3v, symObjAddr: 0x2C014, symBinAddr: 0x10002F0DC, symSize: 0x43C }
  - { offset: 0x32B72, size: 0x8, addend: 0x0, symName: __ZNSt3__110shared_ptrI11LightSourceEC1B8ne200100I11SphereLightTnNS_9enable_ifIXsr17__compatible_withIT_S1_EE5valueEiE4typeELi0EEEONS0_IS6_EE, symObjAddr: 0x2C4A8, symBinAddr: 0x10002F570, symSize: 0x34 }
  - { offset: 0x32BBA, size: 0x8, addend: 0x0, symName: __ZNSt3__110shared_ptrI11SphereLightED1B8ne200100Ev, symObjAddr: 0x2C4DC, symBinAddr: 0x10002F5A4, symSize: 0x2C }
  - { offset: 0x32BE4, size: 0x8, addend: 0x0, symName: __ZNSt3__19allocatorI11SphereLightEC1B8ne200100Ev, symObjAddr: 0x2C5E8, symBinAddr: 0x10002F6B0, symSize: 0x2C }
  - { offset: 0x32C5F, size: 0x8, addend: 0x0, symName: __ZNSt3__118__allocation_guardINS_9allocatorINS_20__shared_ptr_emplaceI11SphereLightNS1_IS3_EEEEEEEC1B8ne200100IS4_EET_m, symObjAddr: 0x2C614, symBinAddr: 0x10002F6DC, symSize: 0x34 }
  - { offset: 0x32CAE, size: 0x8, addend: 0x0, symName: __ZNKSt3__118__allocation_guardINS_9allocatorINS_20__shared_ptr_emplaceI11SphereLightNS1_IS3_EEEEEEE5__getB8ne200100Ev, symObjAddr: 0x2C648, symBinAddr: 0x10002F710, symSize: 0x18 }
  - { offset: 0x32CD4, size: 0x8, addend: 0x0, symName: __ZNSt3__120__shared_ptr_emplaceI11SphereLightNS_9allocatorIS1_EEEC1B8ne200100IJ6VectoriS6_dES3_TnNS_9enable_ifIXntsr7is_sameINT0_10value_typeENS_19__for_overwrite_tagEEE5valueEiE4typeELi0EEES3_DpOT_, symObjAddr: 0x2C660, symBinAddr: 0x10002F728, symSize: 0x4C }
  - { offset: 0x32D6D, size: 0x8, addend: 0x0, symName: __ZNSt3__118__allocation_guardINS_9allocatorINS_20__shared_ptr_emplaceI11SphereLightNS1_IS3_EEEEEEE13__release_ptrB8ne200100Ev, symObjAddr: 0x2C6AC, symBinAddr: 0x10002F774, symSize: 0x24 }
  - { offset: 0x32DA1, size: 0x8, addend: 0x0, symName: __ZNSt3__110shared_ptrI11SphereLightE27__create_with_control_blockB8ne200100IS1_NS_20__shared_ptr_emplaceIS1_NS_9allocatorIS1_EEEEEES2_PT_PT0_, symObjAddr: 0x2C6D0, symBinAddr: 0x10002F798, symSize: 0xA4 }
  - { offset: 0x32DF6, size: 0x8, addend: 0x0, symName: __ZNSt3__120__shared_ptr_emplaceI11SphereLightNS_9allocatorIS1_EEE10__get_elemB8ne200100Ev, symObjAddr: 0x2C774, symBinAddr: 0x10002F83C, symSize: 0x28 }
  - { offset: 0x32E1C, size: 0x8, addend: 0x0, symName: __ZNSt3__118__allocation_guardINS_9allocatorINS_20__shared_ptr_emplaceI11SphereLightNS1_IS3_EEEEEEED1B8ne200100Ev, symObjAddr: 0x2C79C, symBinAddr: 0x10002F864, symSize: 0x2C }
  - { offset: 0x32E46, size: 0x8, addend: 0x0, symName: __ZNSt3__118__allocation_guardINS_9allocatorINS_20__shared_ptr_emplaceI11SphereLightNS1_IS3_EEEEEEEC2B8ne200100IS4_EET_m, symObjAddr: 0x2C7C8, symBinAddr: 0x10002F890, symSize: 0x50 }
  - { offset: 0x32E9B, size: 0x8, addend: 0x0, symName: __ZNSt3__19allocatorINS_20__shared_ptr_emplaceI11SphereLightNS0_IS2_EEEEEC1B8ne200100IS2_EERKNS0_IT_EE, symObjAddr: 0x2C818, symBinAddr: 0x10002F8E0, symSize: 0x34 }
  - { offset: 0x32ED9, size: 0x8, addend: 0x0, symName: __ZNSt3__116allocator_traitsINS_9allocatorINS_20__shared_ptr_emplaceI11SphereLightNS1_IS3_EEEEEEE8allocateB8ne200100ERS6_m, symObjAddr: 0x2C84C, symBinAddr: 0x10002F914, symSize: 0x2C }
  - { offset: 0x32F0C, size: 0x8, addend: 0x0, symName: __ZNSt3__19allocatorINS_20__shared_ptr_emplaceI11SphereLightNS0_IS2_EEEEEC2B8ne200100IS2_EERKNS0_IT_EE, symObjAddr: 0x2C878, symBinAddr: 0x10002F940, symSize: 0x30 }
  - { offset: 0x32F4A, size: 0x8, addend: 0x0, symName: __ZNSt3__116__non_trivial_ifILb1ENS_9allocatorINS_20__shared_ptr_emplaceI11SphereLightNS1_IS3_EEEEEEEC2B8ne200100Ev, symObjAddr: 0x2C8A8, symBinAddr: 0x10002F970, symSize: 0x14 }
  - { offset: 0x32F74, size: 0x8, addend: 0x0, symName: __ZNSt3__19allocatorINS_20__shared_ptr_emplaceI11SphereLightNS0_IS2_EEEEE8allocateB8ne200100Em, symObjAddr: 0x2C8BC, symBinAddr: 0x10002F984, symSize: 0x50 }
  - { offset: 0x32FB3, size: 0x8, addend: 0x0, symName: __ZNSt3__116allocator_traitsINS_9allocatorINS_20__shared_ptr_emplaceI11SphereLightNS1_IS3_EEEEEEE8max_sizeB8ne200100IS6_TnNS_9enable_ifIXsr14__has_max_sizeIKT_EE5valueEiE4typeELi0EEEmRKS6_, symObjAddr: 0x2C90C, symBinAddr: 0x10002F9D4, symSize: 0x24 }
  - { offset: 0x32FE6, size: 0x8, addend: 0x0, symName: __ZNKSt3__19allocatorINS_20__shared_ptr_emplaceI11SphereLightNS0_IS2_EEEEE8max_sizeB8ne200100Ev, symObjAddr: 0x2C9A0, symBinAddr: 0x10002FA68, symSize: 0x20 }
  - { offset: 0x3300C, size: 0x8, addend: 0x0, symName: __ZNSt3__120__shared_ptr_emplaceI11SphereLightNS_9allocatorIS1_EEEC2B8ne200100IJ6VectoriS6_dES3_TnNS_9enable_ifIXntsr7is_sameINT0_10value_typeENS_19__for_overwrite_tagEEE5valueEiE4typeELi0EEES3_DpOT_, symObjAddr: 0x2C9C0, symBinAddr: 0x10002FA88, symSize: 0xD4 }
  - { offset: 0x330C4, size: 0x8, addend: 0x0, symName: __ZNSt3__120__shared_ptr_emplaceI11SphereLightNS_9allocatorIS1_EEE8_StorageC1B8ne200100EOS3_, symObjAddr: 0x2CA94, symBinAddr: 0x10002FB5C, symSize: 0x34 }
  - { offset: 0x330FC, size: 0x8, addend: 0x0, symName: __ZNSt3__120__shared_ptr_emplaceI11SphereLightNS_9allocatorIS1_EEE11__get_allocB8ne200100Ev, symObjAddr: 0x2CAC8, symBinAddr: 0x10002FB90, symSize: 0x28 }
  - { offset: 0x33128, size: 0x8, addend: 0x0, symName: __ZNSt3__116allocator_traitsINS_9allocatorI11SphereLightEEE9constructB8ne200100IS2_J6VectoriS6_dETnNS_9enable_ifIXsr15__has_constructIS3_PT_DpT0_EE5valueEiE4typeELi0EEEvRS3_S9_DpOSA_, symObjAddr: 0x2CAF0, symBinAddr: 0x10002FBB8, symSize: 0x4C }
  - { offset: 0x331C0, size: 0x8, addend: 0x0, symName: __ZNSt3__120__shared_ptr_emplaceI11SphereLightNS_9allocatorIS1_EEE8_StorageD1B8ne200100Ev, symObjAddr: 0x2CB3C, symBinAddr: 0x10002FC04, symSize: 0x2C }
  - { offset: 0x331EA, size: 0x8, addend: 0x0, symName: __ZNSt3__120__shared_ptr_emplaceI11SphereLightNS_9allocatorIS1_EEED1Ev, symObjAddr: 0x2CB68, symBinAddr: 0x10002FC30, symSize: 0x2C }
  - { offset: 0x33216, size: 0x8, addend: 0x0, symName: __ZNSt3__120__shared_ptr_emplaceI11SphereLightNS_9allocatorIS1_EEED0Ev, symObjAddr: 0x2CB94, symBinAddr: 0x10002FC5C, symSize: 0x34 }
  - { offset: 0x33242, size: 0x8, addend: 0x0, symName: __ZNSt3__120__shared_ptr_emplaceI11SphereLightNS_9allocatorIS1_EEE16__on_zero_sharedEv, symObjAddr: 0x2CBC8, symBinAddr: 0x10002FC90, symSize: 0x24 }
  - { offset: 0x33268, size: 0x8, addend: 0x0, symName: __ZNSt3__120__shared_ptr_emplaceI11SphereLightNS_9allocatorIS1_EEE21__on_zero_shared_weakEv, symObjAddr: 0x2CBEC, symBinAddr: 0x10002FCB4, symSize: 0x5C }
  - { offset: 0x332A7, size: 0x8, addend: 0x0, symName: __ZNSt3__120__shared_ptr_emplaceI11SphereLightNS_9allocatorIS1_EEE8_StorageC2B8ne200100EOS3_, symObjAddr: 0x2CC48, symBinAddr: 0x10002FD10, symSize: 0x30 }
  - { offset: 0x332DF, size: 0x8, addend: 0x0, symName: __ZNSt3__120__shared_ptr_emplaceI11SphereLightNS_9allocatorIS1_EEE8_Storage11__get_allocB8ne200100Ev, symObjAddr: 0x2CC78, symBinAddr: 0x10002FD40, symSize: 0x14 }
  - { offset: 0x33305, size: 0x8, addend: 0x0, symName: __ZNSt3__19allocatorI11SphereLightE9constructB8ne200100IS1_J6VectoriS4_dEEEvPT_DpOT0_, symObjAddr: 0x2CC8C, symBinAddr: 0x10002FD54, symSize: 0x5C }
  - { offset: 0x33394, size: 0x8, addend: 0x0, symName: __ZN11SphereLightC1ERK6VectordS2_d, symObjAddr: 0x2CCE8, symBinAddr: 0x10002FDB0, symSize: 0x4C }
  - { offset: 0x333F6, size: 0x8, addend: 0x0, symName: __ZN11SphereLightC2ERK6VectordS2_d, symObjAddr: 0x2CD34, symBinAddr: 0x10002FDFC, symSize: 0x94 }
  - { offset: 0x33458, size: 0x8, addend: 0x0, symName: __ZN11SphereLightD1Ev, symObjAddr: 0x2CDC8, symBinAddr: 0x10002FE90, symSize: 0x2C }
  - { offset: 0x33484, size: 0x8, addend: 0x0, symName: __ZN11SphereLightD0Ev, symObjAddr: 0x2CDF4, symBinAddr: 0x10002FEBC, symSize: 0x34 }
  - { offset: 0x334B0, size: 0x8, addend: 0x0, symName: __ZNK11SphereLight14GetRandomPointERNSt3__126linear_congruential_engineIjLj48271ELj0ELj2147483647EEERK6Vector, symObjAddr: 0x2CE28, symBinAddr: 0x10002FEF0, symSize: 0xAC }
  - { offset: 0x3350F, size: 0x8, addend: 0x0, symName: __ZThn80_N11SphereLightD1Ev, symObjAddr: 0x2CED4, symBinAddr: 0x10002FF9C, symSize: 0x1C }
  - { offset: 0x33525, size: 0x8, addend: 0x0, symName: __ZThn80_N11SphereLightD0Ev, symObjAddr: 0x2CEF0, symBinAddr: 0x10002FFB8, symSize: 0x18 }
  - { offset: 0x3353B, size: 0x8, addend: 0x0, symName: __ZThn80_NK11SphereLight14GetRandomPointERNSt3__126linear_congruential_engineIjLj48271ELj0ELj2147483647EEERK6Vector, symObjAddr: 0x2CF08, symBinAddr: 0x10002FFD0, symSize: 0x50 }
  - { offset: 0x33551, size: 0x8, addend: 0x0, symName: __ZN11SphereLightD2Ev, symObjAddr: 0x2CF58, symBinAddr: 0x100030020, symSize: 0x38 }
  - { offset: 0x3357D, size: 0x8, addend: 0x0, symName: __ZNSt3__120__shared_ptr_emplaceI11SphereLightNS_9allocatorIS1_EEE8_StorageD2B8ne200100Ev, symObjAddr: 0x2CF90, symBinAddr: 0x100030058, symSize: 0x2C }
  - { offset: 0x335A7, size: 0x8, addend: 0x0, symName: __ZNSt3__120__shared_ptr_emplaceI11SphereLightNS_9allocatorIS1_EEED2Ev, symObjAddr: 0x2CFBC, symBinAddr: 0x100030084, symSize: 0x48 }
  - { offset: 0x335D3, size: 0x8, addend: 0x0, symName: __ZNSt3__120__shared_ptr_emplaceI11SphereLightNS_9allocatorIS1_EEE21__on_zero_shared_implB8ne200100IS3_TnNS_9enable_ifIXntsr7is_sameINT_10value_typeENS_19__for_overwrite_tagEEE5valueEiE4typeELi0EEEvv, symObjAddr: 0x2D004, symBinAddr: 0x1000300CC, symSize: 0x44 }
  - { offset: 0x33621, size: 0x8, addend: 0x0, symName: __ZNSt3__116allocator_traitsINS_9allocatorI11SphereLightEEE7destroyB8ne200100IS2_TnNS_9enable_ifIXsr13__has_destroyIS3_PT_EE5valueEiE4typeELi0EEEvRS3_S8_, symObjAddr: 0x2D048, symBinAddr: 0x100030110, symSize: 0x2C }
  - { offset: 0x33663, size: 0x8, addend: 0x0, symName: __ZNSt3__19allocatorI11SphereLightE7destroyB8ne200100EPS1_, symObjAddr: 0x2D074, symBinAddr: 0x10003013C, symSize: 0x30 }
  - { offset: 0x33697, size: 0x8, addend: 0x0, symName: __ZNSt3__116allocator_traitsINS_9allocatorINS_20__shared_ptr_emplaceI11SphereLightNS1_IS3_EEEEEEE10deallocateB8ne200100ERS6_PS5_m, symObjAddr: 0x2D0A4, symBinAddr: 0x10003016C, symSize: 0x34 }
  - { offset: 0x336D9, size: 0x8, addend: 0x0, symName: __ZNSt3__114pointer_traitsIPNS_20__shared_ptr_emplaceI11SphereLightNS_9allocatorIS2_EEEEE10pointer_toB8ne200100ERS5_, symObjAddr: 0x2D0D8, symBinAddr: 0x1000301A0, symSize: 0x14 }
  - { offset: 0x336FC, size: 0x8, addend: 0x0, symName: __ZNSt3__19allocatorINS_20__shared_ptr_emplaceI11SphereLightNS0_IS2_EEEEE10deallocateB8ne200100EPS4_m, symObjAddr: 0x2D0EC, symBinAddr: 0x1000301B4, symSize: 0x34 }
  - { offset: 0x3373E, size: 0x8, addend: 0x0, symName: __ZNSt3__110shared_ptrI11SphereLightEC1B8ne200100Ev, symObjAddr: 0x2D1F0, symBinAddr: 0x1000302B8, symSize: 0x2C }
  - { offset: 0x33768, size: 0x8, addend: 0x0, symName: __ZNSt3__110shared_ptrI11SphereLightE18__enable_weak_thisB8ne200100Ez, symObjAddr: 0x2D21C, symBinAddr: 0x1000302E4, symSize: 0x10 }
  - { offset: 0x3378F, size: 0x8, addend: 0x0, symName: __ZNSt3__110shared_ptrI11SphereLightEC2B8ne200100Ev, symObjAddr: 0x2D22C, symBinAddr: 0x1000302F4, symSize: 0x1C }
  - { offset: 0x337B9, size: 0x8, addend: 0x0, symName: __ZNSt3__120__shared_ptr_emplaceI11SphereLightNS_9allocatorIS1_EEE8_Storage10__get_elemB8ne200100Ev, symObjAddr: 0x2D248, symBinAddr: 0x100030310, symSize: 0x14 }
  - { offset: 0x337DF, size: 0x8, addend: 0x0, symName: __ZNSt3__118__allocation_guardINS_9allocatorINS_20__shared_ptr_emplaceI11SphereLightNS1_IS3_EEEEEEED2B8ne200100Ev, symObjAddr: 0x2D25C, symBinAddr: 0x100030324, symSize: 0x2C }
  - { offset: 0x33809, size: 0x8, addend: 0x0, symName: __ZNSt3__118__allocation_guardINS_9allocatorINS_20__shared_ptr_emplaceI11SphereLightNS1_IS3_EEEEEEE9__destroyB8ne200100Ev, symObjAddr: 0x2D288, symBinAddr: 0x100030350, symSize: 0x44 }
  - { offset: 0x3382F, size: 0x8, addend: 0x0, symName: __ZNSt3__19allocatorI11SphereLightEC2B8ne200100Ev, symObjAddr: 0x2D2CC, symBinAddr: 0x100030394, symSize: 0x2C }
  - { offset: 0x33859, size: 0x8, addend: 0x0, symName: __ZNSt3__116__non_trivial_ifILb1ENS_9allocatorI11SphereLightEEEC2B8ne200100Ev, symObjAddr: 0x2D2F8, symBinAddr: 0x1000303C0, symSize: 0x14 }
  - { offset: 0x33883, size: 0x8, addend: 0x0, symName: __ZNSt3__110shared_ptrI11LightSourceEC2B8ne200100I11SphereLightTnNS_9enable_ifIXsr17__compatible_withIT_S1_EE5valueEiE4typeELi0EEEONS0_IS6_EE, symObjAddr: 0x2D30C, symBinAddr: 0x1000303D4, symSize: 0x78 }
  - { offset: 0x338CB, size: 0x8, addend: 0x0, symName: __ZNSt3__110shared_ptrI11SphereLightED2B8ne200100Ev, symObjAddr: 0x2D384, symBinAddr: 0x10003044C, symSize: 0x4C }
  - { offset: 0x338F4, size: 0x8, addend: 0x0, symName: __Z8example4v, symObjAddr: 0x2D3D0, symBinAddr: 0x100030498, symSize: 0x4E8 }
  - { offset: 0x3396A, size: 0x8, addend: 0x0, symName: __Z8example5v, symObjAddr: 0x2D8B8, symBinAddr: 0x100030980, symSize: 0x51C }
  - { offset: 0x339EF, size: 0x8, addend: 0x0, symName: __ZN12TriangleMeshC1ERK6Vectorbbd, symObjAddr: 0x2DDD4, symBinAddr: 0x100030E9C, symSize: 0x54 }
  - { offset: 0x33A51, size: 0x8, addend: 0x0, symName: __ZN12TriangleMesh7readOBJEPKc, symObjAddr: 0x2DE28, symBinAddr: 0x100030EF0, symSize: 0x15D4 }
  - { offset: 0x33C69, size: 0x8, addend: 0x0, symName: __ZN12TriangleMesh12load_textureEPKc, symObjAddr: 0x2F3FC, symBinAddr: 0x1000324C4, symSize: 0x15C }
  - { offset: 0x33D07, size: 0x8, addend: 0x0, symName: __ZN12TriangleMesh14applyTransformERK6VectorS2_, symObjAddr: 0x2F558, symBinAddr: 0x100032620, symSize: 0xC0 }
  - { offset: 0x33D9D, size: 0x8, addend: 0x0, symName: __ZN7NodeBVHC1Ev, symObjAddr: 0x2F618, symBinAddr: 0x1000326E0, symSize: 0x2C }
  - { offset: 0x33DC7, size: 0x8, addend: 0x0, symName: __ZNK12TriangleMesh12ConstructBVHEP7NodeBVHii, symObjAddr: 0x2F644, symBinAddr: 0x10003270C, symSize: 0x2E4 }
  - { offset: 0x33E96, size: 0x8, addend: 0x0, symName: __ZNKSt3__16vectorI15TriangleIndicesNS_9allocatorIS1_EEE4sizeB8ne200100Ev, symObjAddr: 0x2F928, symBinAddr: 0x1000329F0, symSize: 0x28 }
  - { offset: 0x33EE8, size: 0x8, addend: 0x0, symName: __ZNSt3__110shared_ptrI8GeometryEC1B8ne200100I12TriangleMeshTnNS_9enable_ifIXsr17__compatible_withIT_S1_EE5valueEiE4typeELi0EEEONS0_IS6_EE, symObjAddr: 0x2F990, symBinAddr: 0x100032A58, symSize: 0x34 }
  - { offset: 0x33F30, size: 0x8, addend: 0x0, symName: __ZNSt3__110shared_ptrI12TriangleMeshED1B8ne200100Ev, symObjAddr: 0x2F9C4, symBinAddr: 0x100032A8C, symSize: 0x2C }
  - { offset: 0x33F5A, size: 0x8, addend: 0x0, symName: __ZN12TriangleMeshD1Ev, symObjAddr: 0x2F9F0, symBinAddr: 0x100032AB8, symSize: 0x2C }
  - { offset: 0x33F86, size: 0x8, addend: 0x0, symName: __ZN12TriangleMeshC2ERK6Vectorbbd, symObjAddr: 0x2FA1C, symBinAddr: 0x100032AE4, symSize: 0x1E4 }
  - { offset: 0x33FE8, size: 0x8, addend: 0x0, symName: __ZNSt3__16vectorINS0_IdNS_9allocatorIdEEEENS1_IS3_EEEC1B8ne200100Ev, symObjAddr: 0x2FC00, symBinAddr: 0x100032CC8, symSize: 0x2C }
  - { offset: 0x34012, size: 0x8, addend: 0x0, symName: __ZNSt3__16vectorIiNS_9allocatorIiEEEC1B8ne200100Ev, symObjAddr: 0x2FC2C, symBinAddr: 0x100032CF4, symSize: 0x2C }
  - { offset: 0x3403C, size: 0x8, addend: 0x0, symName: __ZNSt3__16vectorI15TriangleIndicesNS_9allocatorIS1_EEEC1B8ne200100Ev, symObjAddr: 0x2FC58, symBinAddr: 0x100032D20, symSize: 0x2C }
  - { offset: 0x34066, size: 0x8, addend: 0x0, symName: __ZNSt3__16vectorI6VectorNS_9allocatorIS1_EEEC1B8ne200100Ev, symObjAddr: 0x2FC84, symBinAddr: 0x100032D4C, symSize: 0x2C }
  - { offset: 0x34090, size: 0x8, addend: 0x0, symName: __ZNSt3__16vectorI6VectorNS_9allocatorIS1_EEED1B8ne200100Ev, symObjAddr: 0x2FCB0, symBinAddr: 0x100032D78, symSize: 0x2C }
  - { offset: 0x340BA, size: 0x8, addend: 0x0, symName: __ZNSt3__16vectorI15TriangleIndicesNS_9allocatorIS1_EEED1B8ne200100Ev, symObjAddr: 0x2FCDC, symBinAddr: 0x100032DA4, symSize: 0x2C }
  - { offset: 0x340E4, size: 0x8, addend: 0x0, symName: __ZNSt3__16vectorIiNS_9allocatorIiEEED1B8ne200100Ev, symObjAddr: 0x2FD08, symBinAddr: 0x100032DD0, symSize: 0x2C }
  - { offset: 0x3410E, size: 0x8, addend: 0x0, symName: __ZNSt3__16vectorINS0_IdNS_9allocatorIdEEEENS1_IS3_EEED1B8ne200100Ev, symObjAddr: 0x2FD34, symBinAddr: 0x100032DFC, symSize: 0x2C }
  - { offset: 0x34138, size: 0x8, addend: 0x0, symName: __ZN12TriangleMeshD0Ev, symObjAddr: 0x2FD60, symBinAddr: 0x100032E28, symSize: 0x34 }
  - { offset: 0x34164, size: 0x8, addend: 0x0, symName: __ZNK12TriangleMesh16findIntersectionERK3Ray, symObjAddr: 0x2FD94, symBinAddr: 0x100032E5C, symSize: 0xDF0 }
  - { offset: 0x343E8, size: 0x8, addend: 0x0, symName: __ZNSt3__16vectorINS0_IdNS_9allocatorIdEEEENS1_IS3_EEEC2B8ne200100Ev, symObjAddr: 0x30B84, symBinAddr: 0x100033C4C, symSize: 0x38 }
  - { offset: 0x34412, size: 0x8, addend: 0x0, symName: __ZNSt3__19allocatorINS_6vectorIdNS0_IdEEEEEC1B8ne200100Ev, symObjAddr: 0x30BBC, symBinAddr: 0x100033C84, symSize: 0x2C }
  - { offset: 0x3443C, size: 0x8, addend: 0x0, symName: __ZNSt3__19allocatorINS_6vectorIdNS0_IdEEEEEC2B8ne200100Ev, symObjAddr: 0x30BE8, symBinAddr: 0x100033CB0, symSize: 0x2C }
  - { offset: 0x34466, size: 0x8, addend: 0x0, symName: __ZNSt3__116__non_trivial_ifILb1ENS_9allocatorINS_6vectorIdNS1_IdEEEEEEEC2B8ne200100Ev, symObjAddr: 0x30C14, symBinAddr: 0x100033CDC, symSize: 0x14 }
  - { offset: 0x34490, size: 0x8, addend: 0x0, symName: __ZNSt3__16vectorIiNS_9allocatorIiEEEC2B8ne200100Ev, symObjAddr: 0x30C28, symBinAddr: 0x100033CF0, symSize: 0x38 }
  - { offset: 0x344BA, size: 0x8, addend: 0x0, symName: __ZNSt3__19allocatorIiEC1B8ne200100Ev, symObjAddr: 0x30C60, symBinAddr: 0x100033D28, symSize: 0x2C }
  - { offset: 0x344E4, size: 0x8, addend: 0x0, symName: __ZNSt3__19allocatorIiEC2B8ne200100Ev, symObjAddr: 0x30C8C, symBinAddr: 0x100033D54, symSize: 0x2C }
  - { offset: 0x3450E, size: 0x8, addend: 0x0, symName: __ZNSt3__116__non_trivial_ifILb1ENS_9allocatorIiEEEC2B8ne200100Ev, symObjAddr: 0x30CB8, symBinAddr: 0x100033D80, symSize: 0x14 }
  - { offset: 0x34538, size: 0x8, addend: 0x0, symName: __ZNSt3__16vectorI15TriangleIndicesNS_9allocatorIS1_EEEC2B8ne200100Ev, symObjAddr: 0x30CCC, symBinAddr: 0x100033D94, symSize: 0x38 }
  - { offset: 0x34562, size: 0x8, addend: 0x0, symName: __ZNSt3__19allocatorI15TriangleIndicesEC1B8ne200100Ev, symObjAddr: 0x30D04, symBinAddr: 0x100033DCC, symSize: 0x2C }
  - { offset: 0x3458C, size: 0x8, addend: 0x0, symName: __ZNSt3__19allocatorI15TriangleIndicesEC2B8ne200100Ev, symObjAddr: 0x30D30, symBinAddr: 0x100033DF8, symSize: 0x2C }
  - { offset: 0x345B6, size: 0x8, addend: 0x0, symName: __ZNSt3__116__non_trivial_ifILb1ENS_9allocatorI15TriangleIndicesEEEC2B8ne200100Ev, symObjAddr: 0x30D5C, symBinAddr: 0x100033E24, symSize: 0x14 }
  - { offset: 0x345E0, size: 0x8, addend: 0x0, symName: __ZNSt3__16vectorI6VectorNS_9allocatorIS1_EEEC2B8ne200100Ev, symObjAddr: 0x30D70, symBinAddr: 0x100033E38, symSize: 0x38 }
  - { offset: 0x3460A, size: 0x8, addend: 0x0, symName: __ZNSt3__19allocatorI6VectorEC1B8ne200100Ev, symObjAddr: 0x30DA8, symBinAddr: 0x100033E70, symSize: 0x2C }
  - { offset: 0x34634, size: 0x8, addend: 0x0, symName: __ZNSt3__19allocatorI6VectorEC2B8ne200100Ev, symObjAddr: 0x30DD4, symBinAddr: 0x100033E9C, symSize: 0x2C }
  - { offset: 0x3465E, size: 0x8, addend: 0x0, symName: __ZNSt3__116__non_trivial_ifILb1ENS_9allocatorI6VectorEEEC2B8ne200100Ev, symObjAddr: 0x30E00, symBinAddr: 0x100033EC8, symSize: 0x14 }
  - { offset: 0x34688, size: 0x8, addend: 0x0, symName: __ZNSt3__16vectorI6VectorNS_9allocatorIS1_EEED2B8ne200100Ev, symObjAddr: 0x30E14, symBinAddr: 0x100033EDC, symSize: 0x44 }
  - { offset: 0x346B2, size: 0x8, addend: 0x0, symName: __ZNSt3__16vectorI6VectorNS_9allocatorIS1_EEE16__destroy_vectorC1B8ne200100ERS4_, symObjAddr: 0x30E58, symBinAddr: 0x100033F20, symSize: 0x34 }
  - { offset: 0x346EA, size: 0x8, addend: 0x0, symName: __ZNSt3__16vectorI6VectorNS_9allocatorIS1_EEE16__destroy_vectorclB8ne200100Ev, symObjAddr: 0x30E8C, symBinAddr: 0x100033F54, symSize: 0x80 }
  - { offset: 0x34710, size: 0x8, addend: 0x0, symName: __ZNSt3__16vectorI6VectorNS_9allocatorIS1_EEE16__destroy_vectorC2B8ne200100ERS4_, symObjAddr: 0x30F0C, symBinAddr: 0x100033FD4, symSize: 0x20 }
  - { offset: 0x34748, size: 0x8, addend: 0x0, symName: __ZNSt3__16vectorI6VectorNS_9allocatorIS1_EEE5clearB8ne200100Ev, symObjAddr: 0x30F2C, symBinAddr: 0x100033FF4, symSize: 0x48 }
  - { offset: 0x3477D, size: 0x8, addend: 0x0, symName: __ZNKSt3__16vectorI6VectorNS_9allocatorIS1_EEE17__annotate_deleteB8ne200100Ev, symObjAddr: 0x30F74, symBinAddr: 0x10003403C, symSize: 0x10 }
  - { offset: 0x347A3, size: 0x8, addend: 0x0, symName: __ZNSt3__116allocator_traitsINS_9allocatorI6VectorEEE10deallocateB8ne200100ERS3_PS2_m, symObjAddr: 0x30F84, symBinAddr: 0x10003404C, symSize: 0x34 }
  - { offset: 0x347E5, size: 0x8, addend: 0x0, symName: __ZNKSt3__16vectorI6VectorNS_9allocatorIS1_EEE8capacityB8ne200100Ev, symObjAddr: 0x30FB8, symBinAddr: 0x100034080, symSize: 0x28 }
  - { offset: 0x3480B, size: 0x8, addend: 0x0, symName: __ZNKSt3__16vectorI6VectorNS_9allocatorIS1_EEE4sizeB8ne200100Ev, symObjAddr: 0x30FE0, symBinAddr: 0x1000340A8, symSize: 0x28 }
  - { offset: 0x34831, size: 0x8, addend: 0x0, symName: __ZNSt3__16vectorI6VectorNS_9allocatorIS1_EEE22__base_destruct_at_endB8ne200100EPS1_, symObjAddr: 0x31008, symBinAddr: 0x1000340D0, symSize: 0x7C }
  - { offset: 0x34875, size: 0x8, addend: 0x0, symName: __ZNKSt3__16vectorI6VectorNS_9allocatorIS1_EEE17__annotate_shrinkB8ne200100Em, symObjAddr: 0x31084, symBinAddr: 0x10003414C, symSize: 0x14 }
  - { offset: 0x348AA, size: 0x8, addend: 0x0, symName: __ZNSt3__116allocator_traitsINS_9allocatorI6VectorEEE7destroyB8ne200100IS2_TnNS_9enable_ifIXsr13__has_destroyIS3_PT_EE5valueEiE4typeELi0EEEvRS3_S8_, symObjAddr: 0x31098, symBinAddr: 0x100034160, symSize: 0x2C }
  - { offset: 0x348EC, size: 0x8, addend: 0x0, symName: __ZNSt3__19allocatorI6VectorE7destroyB8ne200100EPS1_, symObjAddr: 0x310D8, symBinAddr: 0x1000341A0, symSize: 0x14 }
  - { offset: 0x34920, size: 0x8, addend: 0x0, symName: __ZNSt3__19allocatorI6VectorE10deallocateB8ne200100EPS1_m, symObjAddr: 0x310EC, symBinAddr: 0x1000341B4, symSize: 0x34 }
  - { offset: 0x34962, size: 0x8, addend: 0x0, symName: __ZNSt3__16vectorI15TriangleIndicesNS_9allocatorIS1_EEED2B8ne200100Ev, symObjAddr: 0x311F0, symBinAddr: 0x1000342B8, symSize: 0x44 }
  - { offset: 0x3498C, size: 0x8, addend: 0x0, symName: __ZNSt3__16vectorI15TriangleIndicesNS_9allocatorIS1_EEE16__destroy_vectorC1B8ne200100ERS4_, symObjAddr: 0x31234, symBinAddr: 0x1000342FC, symSize: 0x34 }
  - { offset: 0x349C4, size: 0x8, addend: 0x0, symName: __ZNSt3__16vectorI15TriangleIndicesNS_9allocatorIS1_EEE16__destroy_vectorclB8ne200100Ev, symObjAddr: 0x31268, symBinAddr: 0x100034330, symSize: 0x80 }
  - { offset: 0x349EA, size: 0x8, addend: 0x0, symName: __ZNSt3__16vectorI15TriangleIndicesNS_9allocatorIS1_EEE16__destroy_vectorC2B8ne200100ERS4_, symObjAddr: 0x312E8, symBinAddr: 0x1000343B0, symSize: 0x20 }
  - { offset: 0x34A22, size: 0x8, addend: 0x0, symName: __ZNSt3__16vectorI15TriangleIndicesNS_9allocatorIS1_EEE5clearB8ne200100Ev, symObjAddr: 0x31308, symBinAddr: 0x1000343D0, symSize: 0x48 }
  - { offset: 0x34A57, size: 0x8, addend: 0x0, symName: __ZNKSt3__16vectorI15TriangleIndicesNS_9allocatorIS1_EEE17__annotate_deleteB8ne200100Ev, symObjAddr: 0x31350, symBinAddr: 0x100034418, symSize: 0x10 }
  - { offset: 0x34A7D, size: 0x8, addend: 0x0, symName: __ZNSt3__116allocator_traitsINS_9allocatorI15TriangleIndicesEEE10deallocateB8ne200100ERS3_PS2_m, symObjAddr: 0x31360, symBinAddr: 0x100034428, symSize: 0x34 }
  - { offset: 0x34ABF, size: 0x8, addend: 0x0, symName: __ZNKSt3__16vectorI15TriangleIndicesNS_9allocatorIS1_EEE8capacityB8ne200100Ev, symObjAddr: 0x31394, symBinAddr: 0x10003445C, symSize: 0x28 }
  - { offset: 0x34AE5, size: 0x8, addend: 0x0, symName: __ZNSt3__16vectorI15TriangleIndicesNS_9allocatorIS1_EEE22__base_destruct_at_endB8ne200100EPS1_, symObjAddr: 0x313BC, symBinAddr: 0x100034484, symSize: 0x7C }
  - { offset: 0x34B29, size: 0x8, addend: 0x0, symName: __ZNKSt3__16vectorI15TriangleIndicesNS_9allocatorIS1_EEE17__annotate_shrinkB8ne200100Em, symObjAddr: 0x31438, symBinAddr: 0x100034500, symSize: 0x14 }
  - { offset: 0x34B5E, size: 0x8, addend: 0x0, symName: __ZNSt3__116allocator_traitsINS_9allocatorI15TriangleIndicesEEE7destroyB8ne200100IS2_TnNS_9enable_ifIXsr13__has_destroyIS3_PT_EE5valueEiE4typeELi0EEEvRS3_S8_, symObjAddr: 0x3144C, symBinAddr: 0x100034514, symSize: 0x2C }
  - { offset: 0x34BA0, size: 0x8, addend: 0x0, symName: __ZNSt3__19allocatorI15TriangleIndicesE7destroyB8ne200100EPS1_, symObjAddr: 0x3148C, symBinAddr: 0x100034554, symSize: 0x14 }
  - { offset: 0x34BD4, size: 0x8, addend: 0x0, symName: __ZNSt3__19allocatorI15TriangleIndicesE10deallocateB8ne200100EPS1_m, symObjAddr: 0x314A0, symBinAddr: 0x100034568, symSize: 0x34 }
  - { offset: 0x34C16, size: 0x8, addend: 0x0, symName: __ZNSt3__16vectorIiNS_9allocatorIiEEED2B8ne200100Ev, symObjAddr: 0x315A4, symBinAddr: 0x10003466C, symSize: 0x44 }
  - { offset: 0x34C40, size: 0x8, addend: 0x0, symName: __ZNSt3__16vectorIiNS_9allocatorIiEEE16__destroy_vectorC1B8ne200100ERS3_, symObjAddr: 0x315E8, symBinAddr: 0x1000346B0, symSize: 0x34 }
  - { offset: 0x34C78, size: 0x8, addend: 0x0, symName: __ZNSt3__16vectorIiNS_9allocatorIiEEE16__destroy_vectorclB8ne200100Ev, symObjAddr: 0x3161C, symBinAddr: 0x1000346E4, symSize: 0x80 }
  - { offset: 0x34C9E, size: 0x8, addend: 0x0, symName: __ZNSt3__16vectorIiNS_9allocatorIiEEE16__destroy_vectorC2B8ne200100ERS3_, symObjAddr: 0x3169C, symBinAddr: 0x100034764, symSize: 0x20 }
  - { offset: 0x34CD6, size: 0x8, addend: 0x0, symName: __ZNSt3__16vectorIiNS_9allocatorIiEEE5clearB8ne200100Ev, symObjAddr: 0x316BC, symBinAddr: 0x100034784, symSize: 0x48 }
  - { offset: 0x34D0B, size: 0x8, addend: 0x0, symName: __ZNKSt3__16vectorIiNS_9allocatorIiEEE17__annotate_deleteB8ne200100Ev, symObjAddr: 0x31704, symBinAddr: 0x1000347CC, symSize: 0x10 }
  - { offset: 0x34D31, size: 0x8, addend: 0x0, symName: __ZNSt3__116allocator_traitsINS_9allocatorIiEEE10deallocateB8ne200100ERS2_Pim, symObjAddr: 0x31714, symBinAddr: 0x1000347DC, symSize: 0x34 }
  - { offset: 0x34D73, size: 0x8, addend: 0x0, symName: __ZNKSt3__16vectorIiNS_9allocatorIiEEE8capacityB8ne200100Ev, symObjAddr: 0x31748, symBinAddr: 0x100034810, symSize: 0x28 }
  - { offset: 0x34D99, size: 0x8, addend: 0x0, symName: __ZNKSt3__16vectorIiNS_9allocatorIiEEE4sizeB8ne200100Ev, symObjAddr: 0x31770, symBinAddr: 0x100034838, symSize: 0x28 }
  - { offset: 0x34DBF, size: 0x8, addend: 0x0, symName: __ZNSt3__16vectorIiNS_9allocatorIiEEE22__base_destruct_at_endB8ne200100EPi, symObjAddr: 0x31798, symBinAddr: 0x100034860, symSize: 0x7C }
  - { offset: 0x34E03, size: 0x8, addend: 0x0, symName: __ZNKSt3__16vectorIiNS_9allocatorIiEEE17__annotate_shrinkB8ne200100Em, symObjAddr: 0x31814, symBinAddr: 0x1000348DC, symSize: 0x14 }
  - { offset: 0x34E38, size: 0x8, addend: 0x0, symName: __ZNSt3__116allocator_traitsINS_9allocatorIiEEE7destroyB8ne200100IiTnNS_9enable_ifIXsr13__has_destroyIS2_PT_EE5valueEiE4typeELi0EEEvRS2_S7_, symObjAddr: 0x31828, symBinAddr: 0x1000348F0, symSize: 0x2C }
  - { offset: 0x34E7A, size: 0x8, addend: 0x0, symName: __ZNSt3__19allocatorIiE7destroyB8ne200100EPi, symObjAddr: 0x31868, symBinAddr: 0x100034930, symSize: 0x14 }
  - { offset: 0x34EAE, size: 0x8, addend: 0x0, symName: __ZNSt3__19allocatorIiE10deallocateB8ne200100EPim, symObjAddr: 0x3187C, symBinAddr: 0x100034944, symSize: 0x34 }
  - { offset: 0x34EF0, size: 0x8, addend: 0x0, symName: __ZNSt3__16vectorINS0_IdNS_9allocatorIdEEEENS1_IS3_EEED2B8ne200100Ev, symObjAddr: 0x3197C, symBinAddr: 0x100034A44, symSize: 0x44 }
  - { offset: 0x34F1A, size: 0x8, addend: 0x0, symName: __ZNSt3__16vectorINS0_IdNS_9allocatorIdEEEENS1_IS3_EEE16__destroy_vectorC1B8ne200100ERS5_, symObjAddr: 0x319C0, symBinAddr: 0x100034A88, symSize: 0x34 }
  - { offset: 0x34F52, size: 0x8, addend: 0x0, symName: __ZNSt3__16vectorINS0_IdNS_9allocatorIdEEEENS1_IS3_EEE16__destroy_vectorclB8ne200100Ev, symObjAddr: 0x319F4, symBinAddr: 0x100034ABC, symSize: 0x80 }
  - { offset: 0x34F78, size: 0x8, addend: 0x0, symName: __ZNSt3__16vectorINS0_IdNS_9allocatorIdEEEENS1_IS3_EEE16__destroy_vectorC2B8ne200100ERS5_, symObjAddr: 0x31A74, symBinAddr: 0x100034B3C, symSize: 0x20 }
  - { offset: 0x34FB0, size: 0x8, addend: 0x0, symName: __ZNSt3__16vectorINS0_IdNS_9allocatorIdEEEENS1_IS3_EEE5clearB8ne200100Ev, symObjAddr: 0x31A94, symBinAddr: 0x100034B5C, symSize: 0x48 }
  - { offset: 0x34FE5, size: 0x8, addend: 0x0, symName: __ZNKSt3__16vectorINS0_IdNS_9allocatorIdEEEENS1_IS3_EEE17__annotate_deleteB8ne200100Ev, symObjAddr: 0x31ADC, symBinAddr: 0x100034BA4, symSize: 0x10 }
  - { offset: 0x3500B, size: 0x8, addend: 0x0, symName: __ZNSt3__116allocator_traitsINS_9allocatorINS_6vectorIdNS1_IdEEEEEEE10deallocateB8ne200100ERS5_PS4_m, symObjAddr: 0x31AEC, symBinAddr: 0x100034BB4, symSize: 0x34 }
  - { offset: 0x3504D, size: 0x8, addend: 0x0, symName: __ZNKSt3__16vectorINS0_IdNS_9allocatorIdEEEENS1_IS3_EEE8capacityB8ne200100Ev, symObjAddr: 0x31B20, symBinAddr: 0x100034BE8, symSize: 0x28 }
  - { offset: 0x35073, size: 0x8, addend: 0x0, symName: __ZNKSt3__16vectorINS0_IdNS_9allocatorIdEEEENS1_IS3_EEE4sizeB8ne200100Ev, symObjAddr: 0x31B48, symBinAddr: 0x100034C10, symSize: 0x28 }
  - { offset: 0x35099, size: 0x8, addend: 0x0, symName: __ZNSt3__16vectorINS0_IdNS_9allocatorIdEEEENS1_IS3_EEE22__base_destruct_at_endB8ne200100EPS3_, symObjAddr: 0x31B70, symBinAddr: 0x100034C38, symSize: 0x7C }
  - { offset: 0x350DD, size: 0x8, addend: 0x0, symName: __ZNKSt3__16vectorINS0_IdNS_9allocatorIdEEEENS1_IS3_EEE17__annotate_shrinkB8ne200100Em, symObjAddr: 0x31BEC, symBinAddr: 0x100034CB4, symSize: 0x14 }
  - { offset: 0x35112, size: 0x8, addend: 0x0, symName: __ZNSt3__116allocator_traitsINS_9allocatorINS_6vectorIdNS1_IdEEEEEEE7destroyB8ne200100IS4_TnNS_9enable_ifIXsr13__has_destroyIS5_PT_EE5valueEiE4typeELi0EEEvRS5_SA_, symObjAddr: 0x31C00, symBinAddr: 0x100034CC8, symSize: 0x2C }
  - { offset: 0x35154, size: 0x8, addend: 0x0, symName: __ZNSt3__19allocatorINS_6vectorIdNS0_IdEEEEE7destroyB8ne200100EPS3_, symObjAddr: 0x31C40, symBinAddr: 0x100034D08, symSize: 0x28 }
  - { offset: 0x35188, size: 0x8, addend: 0x0, symName: __ZNSt3__16vectorIdNS_9allocatorIdEEED1B8ne200100Ev, symObjAddr: 0x31C68, symBinAddr: 0x100034D30, symSize: 0x2C }
  - { offset: 0x351B2, size: 0x8, addend: 0x0, symName: __ZNSt3__16vectorIdNS_9allocatorIdEEED2B8ne200100Ev, symObjAddr: 0x31C94, symBinAddr: 0x100034D5C, symSize: 0x44 }
  - { offset: 0x351DC, size: 0x8, addend: 0x0, symName: __ZNSt3__16vectorIdNS_9allocatorIdEEE16__destroy_vectorC1B8ne200100ERS3_, symObjAddr: 0x31CD8, symBinAddr: 0x100034DA0, symSize: 0x34 }
  - { offset: 0x35214, size: 0x8, addend: 0x0, symName: __ZNSt3__16vectorIdNS_9allocatorIdEEE16__destroy_vectorclB8ne200100Ev, symObjAddr: 0x31D0C, symBinAddr: 0x100034DD4, symSize: 0x80 }
  - { offset: 0x3523A, size: 0x8, addend: 0x0, symName: __ZNSt3__16vectorIdNS_9allocatorIdEEE16__destroy_vectorC2B8ne200100ERS3_, symObjAddr: 0x31D8C, symBinAddr: 0x100034E54, symSize: 0x20 }
  - { offset: 0x35272, size: 0x8, addend: 0x0, symName: __ZNSt3__16vectorIdNS_9allocatorIdEEE5clearB8ne200100Ev, symObjAddr: 0x31DAC, symBinAddr: 0x100034E74, symSize: 0x48 }
  - { offset: 0x352A7, size: 0x8, addend: 0x0, symName: __ZNKSt3__16vectorIdNS_9allocatorIdEEE17__annotate_deleteB8ne200100Ev, symObjAddr: 0x31DF4, symBinAddr: 0x100034EBC, symSize: 0x10 }
  - { offset: 0x352CD, size: 0x8, addend: 0x0, symName: __ZNSt3__116allocator_traitsINS_9allocatorIdEEE10deallocateB8ne200100ERS2_Pdm, symObjAddr: 0x31E04, symBinAddr: 0x100034ECC, symSize: 0x34 }
  - { offset: 0x3530F, size: 0x8, addend: 0x0, symName: __ZNKSt3__16vectorIdNS_9allocatorIdEEE8capacityB8ne200100Ev, symObjAddr: 0x31E38, symBinAddr: 0x100034F00, symSize: 0x28 }
  - { offset: 0x35335, size: 0x8, addend: 0x0, symName: __ZNKSt3__16vectorIdNS_9allocatorIdEEE4sizeB8ne200100Ev, symObjAddr: 0x31E60, symBinAddr: 0x100034F28, symSize: 0x28 }
  - { offset: 0x3535B, size: 0x8, addend: 0x0, symName: __ZNSt3__16vectorIdNS_9allocatorIdEEE22__base_destruct_at_endB8ne200100EPd, symObjAddr: 0x31E88, symBinAddr: 0x100034F50, symSize: 0x7C }
  - { offset: 0x3539F, size: 0x8, addend: 0x0, symName: __ZNKSt3__16vectorIdNS_9allocatorIdEEE17__annotate_shrinkB8ne200100Em, symObjAddr: 0x31F04, symBinAddr: 0x100034FCC, symSize: 0x14 }
  - { offset: 0x353D4, size: 0x8, addend: 0x0, symName: __ZNSt3__116allocator_traitsINS_9allocatorIdEEE7destroyB8ne200100IdTnNS_9enable_ifIXsr13__has_destroyIS2_PT_EE5valueEiE4typeELi0EEEvRS2_S7_, symObjAddr: 0x31F18, symBinAddr: 0x100034FE0, symSize: 0x2C }
  - { offset: 0x35416, size: 0x8, addend: 0x0, symName: __ZNSt3__19allocatorIdE7destroyB8ne200100EPd, symObjAddr: 0x31F58, symBinAddr: 0x100035020, symSize: 0x14 }
  - { offset: 0x3544A, size: 0x8, addend: 0x0, symName: __ZNSt3__19allocatorIdE10deallocateB8ne200100EPdm, symObjAddr: 0x31F6C, symBinAddr: 0x100035034, symSize: 0x34 }
  - { offset: 0x3548C, size: 0x8, addend: 0x0, symName: __ZNSt3__19allocatorINS_6vectorIdNS0_IdEEEEE10deallocateB8ne200100EPS3_m, symObjAddr: 0x3206C, symBinAddr: 0x100035134, symSize: 0x34 }
  - { offset: 0x354CE, size: 0x8, addend: 0x0, symName: __ZNK11BoundingBox9intersectERK3RayRd, symObjAddr: 0x32170, symBinAddr: 0x100035238, symSize: 0x404 }
  - { offset: 0x356CE, size: 0x8, addend: 0x0, symName: __ZNSt3__14listIP7NodeBVHNS_9allocatorIS2_EEEC1B8ne200100Ev, symObjAddr: 0x32574, symBinAddr: 0x10003563C, symSize: 0x2C }
  - { offset: 0x356F8, size: 0x8, addend: 0x0, symName: __ZNSt3__14listIP7NodeBVHNS_9allocatorIS2_EEE10push_frontERKS2_, symObjAddr: 0x325A0, symBinAddr: 0x100035668, symSize: 0x6C }
  - { offset: 0x3574B, size: 0x8, addend: 0x0, symName: __ZNKSt3__14listIP7NodeBVHNS_9allocatorIS2_EEE5emptyB8ne200100Ev, symObjAddr: 0x3260C, symBinAddr: 0x1000356D4, symSize: 0x24 }
  - { offset: 0x35771, size: 0x8, addend: 0x0, symName: __ZNSt3__14listIP7NodeBVHNS_9allocatorIS2_EEE4backB8ne200100Ev, symObjAddr: 0x32630, symBinAddr: 0x1000356F8, symSize: 0x2C }
  - { offset: 0x35797, size: 0x8, addend: 0x0, symName: __ZNSt3__14listIP7NodeBVHNS_9allocatorIS2_EEE8pop_backEv, symObjAddr: 0x3265C, symBinAddr: 0x100035724, symSize: 0x5C }
  - { offset: 0x357CC, size: 0x8, addend: 0x0, symName: __ZNSt3__14listIP7NodeBVHNS_9allocatorIS2_EEE9push_backERKS2_, symObjAddr: 0x326B8, symBinAddr: 0x100035780, symSize: 0x6C }
  - { offset: 0x3581F, size: 0x8, addend: 0x0, symName: __ZNSt3__16vectorI15TriangleIndicesNS_9allocatorIS1_EEEixB8ne200100Em, symObjAddr: 0x32724, symBinAddr: 0x1000357EC, symSize: 0x2C }
  - { offset: 0x35854, size: 0x8, addend: 0x0, symName: __ZNKSt3__16vectorI6VectorNS_9allocatorIS1_EEEixB8ne200100Em, symObjAddr: 0x32750, symBinAddr: 0x100035818, symSize: 0x2C }
  - { offset: 0x35889, size: 0x8, addend: 0x0, symName: __ZNKSt3__16vectorIiNS_9allocatorIiEEEixB8ne200100Em, symObjAddr: 0x3277C, symBinAddr: 0x100035844, symSize: 0x24 }
  - { offset: 0x358BE, size: 0x8, addend: 0x0, symName: __ZNKSt3__16vectorINS0_IdNS_9allocatorIdEEEENS1_IS3_EEEixB8ne200100Em, symObjAddr: 0x327F8, symBinAddr: 0x1000358C0, symSize: 0x2C }
  - { offset: 0x358F3, size: 0x8, addend: 0x0, symName: __ZNKSt3__16vectorIdNS_9allocatorIdEEEixB8ne200100Em, symObjAddr: 0x32824, symBinAddr: 0x1000358EC, symSize: 0x24 }
  - { offset: 0x35928, size: 0x8, addend: 0x0, symName: __ZNSt3__14listIP7NodeBVHNS_9allocatorIS2_EEED1Ev, symObjAddr: 0x32848, symBinAddr: 0x100035910, symSize: 0x2C }
  - { offset: 0x35955, size: 0x8, addend: 0x0, symName: __ZNSt3__14listIP7NodeBVHNS_9allocatorIS2_EEEC2B8ne200100Ev, symObjAddr: 0x32874, symBinAddr: 0x10003593C, symSize: 0x2C }
  - { offset: 0x3597F, size: 0x8, addend: 0x0, symName: __ZNSt3__110__list_impIP7NodeBVHNS_9allocatorIS2_EEEC2Ev, symObjAddr: 0x328A0, symBinAddr: 0x100035968, symSize: 0x40 }
  - { offset: 0x359A9, size: 0x8, addend: 0x0, symName: __ZNSt3__116__list_node_baseIP7NodeBVHPvEC1B8ne200100Ev, symObjAddr: 0x328E0, symBinAddr: 0x1000359A8, symSize: 0x2C }
  - { offset: 0x359D3, size: 0x8, addend: 0x0, symName: __ZNSt3__19allocatorINS_11__list_nodeIP7NodeBVHPvEEEC1B8ne200100Ev, symObjAddr: 0x3290C, symBinAddr: 0x1000359D4, symSize: 0x2C }
  - { offset: 0x359FD, size: 0x8, addend: 0x0, symName: __ZNSt3__116__list_node_baseIP7NodeBVHPvEC2B8ne200100Ev, symObjAddr: 0x32938, symBinAddr: 0x100035A00, symSize: 0x44 }
  - { offset: 0x35A27, size: 0x8, addend: 0x0, symName: __ZNSt3__116__list_node_baseIP7NodeBVHPvE6__selfB8ne200100Ev, symObjAddr: 0x3297C, symBinAddr: 0x100035A44, symSize: 0x24 }
  - { offset: 0x35A53, size: 0x8, addend: 0x0, symName: __ZNSt3__114pointer_traitsIPNS_16__list_node_baseIP7NodeBVHPvEEE10pointer_toB8ne200100ERS5_, symObjAddr: 0x329A0, symBinAddr: 0x100035A68, symSize: 0x14 }
  - { offset: 0x35A76, size: 0x8, addend: 0x0, symName: __ZNSt3__19allocatorINS_11__list_nodeIP7NodeBVHPvEEEC2B8ne200100Ev, symObjAddr: 0x329B4, symBinAddr: 0x100035A7C, symSize: 0x2C }
  - { offset: 0x35AA0, size: 0x8, addend: 0x0, symName: __ZNSt3__116__non_trivial_ifILb1ENS_9allocatorINS_11__list_nodeIP7NodeBVHPvEEEEEC2B8ne200100Ev, symObjAddr: 0x329E0, symBinAddr: 0x100035AA8, symSize: 0x14 }
  - { offset: 0x35ACA, size: 0x8, addend: 0x0, symName: __ZNSt3__110__list_impIP7NodeBVHNS_9allocatorIS2_EEE13__create_nodeB8ne200100IJRKS2_EEEPNS_11__list_nodeIS2_PvEEPNS_16__list_node_baseIS2_SA_EESF_DpOT_, symObjAddr: 0x329F4, symBinAddr: 0x100035ABC, symSize: 0x100 }
  - { offset: 0x35B37, size: 0x8, addend: 0x0, symName: __ZNSt3__111__list_nodeIP7NodeBVHPvE9__as_linkB8ne200100Ev, symObjAddr: 0x32AF4, symBinAddr: 0x100035BBC, symSize: 0x24 }
  - { offset: 0x35B5D, size: 0x8, addend: 0x0, symName: __ZNSt3__14listIP7NodeBVHNS_9allocatorIS2_EEE21__link_nodes_at_frontEPNS_16__list_node_baseIS2_PvEES9_, symObjAddr: 0x32B18, symBinAddr: 0x100035BE0, symSize: 0x60 }
  - { offset: 0x35BC2, size: 0x8, addend: 0x0, symName: __ZNSt3__118__allocation_guardINS_9allocatorINS_11__list_nodeIP7NodeBVHPvEEEEEC1B8ne200100IS7_EET_m, symObjAddr: 0x32B78, symBinAddr: 0x100035C40, symSize: 0x34 }
  - { offset: 0x35C11, size: 0x8, addend: 0x0, symName: __ZNKSt3__118__allocation_guardINS_9allocatorINS_11__list_nodeIP7NodeBVHPvEEEEE5__getB8ne200100Ev, symObjAddr: 0x32BF0, symBinAddr: 0x100035CB8, symSize: 0x18 }
  - { offset: 0x35C37, size: 0x8, addend: 0x0, symName: __ZNSt3__116allocator_traitsINS_9allocatorINS_11__list_nodeIP7NodeBVHPvEEEEE9constructB8ne200100IS4_JRKS4_ETnNS_9enable_ifIXsr15__has_constructIS7_PT_DpT0_EE5valueEiE4typeELi0EEEvRS7_SE_DpOSF_, symObjAddr: 0x32C08, symBinAddr: 0x100035CD0, symSize: 0x34 }
  - { offset: 0x35C93, size: 0x8, addend: 0x0, symName: __ZNSt3__111__list_nodeIP7NodeBVHPvE11__get_valueB8ne200100Ev, symObjAddr: 0x32C3C, symBinAddr: 0x100035D04, symSize: 0x18 }
  - { offset: 0x35CB9, size: 0x8, addend: 0x0, symName: __ZNSt3__118__allocation_guardINS_9allocatorINS_11__list_nodeIP7NodeBVHPvEEEEE13__release_ptrB8ne200100Ev, symObjAddr: 0x32C54, symBinAddr: 0x100035D1C, symSize: 0x24 }
  - { offset: 0x35CED, size: 0x8, addend: 0x0, symName: __ZNSt3__118__allocation_guardINS_9allocatorINS_11__list_nodeIP7NodeBVHPvEEEEED1B8ne200100Ev, symObjAddr: 0x32C78, symBinAddr: 0x100035D40, symSize: 0x2C }
  - { offset: 0x35D17, size: 0x8, addend: 0x0, symName: __ZNSt3__118__allocation_guardINS_9allocatorINS_11__list_nodeIP7NodeBVHPvEEEEEC2B8ne200100IS7_EET_m, symObjAddr: 0x32CA4, symBinAddr: 0x100035D6C, symSize: 0x44 }
  - { offset: 0x35D66, size: 0x8, addend: 0x0, symName: __ZNSt3__116allocator_traitsINS_9allocatorINS_11__list_nodeIP7NodeBVHPvEEEEE8allocateB8ne200100ERS7_m, symObjAddr: 0x32CE8, symBinAddr: 0x100035DB0, symSize: 0x2C }
  - { offset: 0x35D99, size: 0x8, addend: 0x0, symName: __ZNSt3__19allocatorINS_11__list_nodeIP7NodeBVHPvEEE8allocateB8ne200100Em, symObjAddr: 0x32D14, symBinAddr: 0x100035DDC, symSize: 0x50 }
  - { offset: 0x35DD8, size: 0x8, addend: 0x0, symName: __ZNSt3__116allocator_traitsINS_9allocatorINS_11__list_nodeIP7NodeBVHPvEEEEE8max_sizeB8ne200100IS7_TnNS_9enable_ifIXsr14__has_max_sizeIKT_EE5valueEiE4typeELi0EEEmRKS7_, symObjAddr: 0x32D64, symBinAddr: 0x100035E2C, symSize: 0x24 }
  - { offset: 0x35E0B, size: 0x8, addend: 0x0, symName: __ZNKSt3__19allocatorINS_11__list_nodeIP7NodeBVHPvEEE8max_sizeB8ne200100Ev, symObjAddr: 0x32DF8, symBinAddr: 0x100035EC0, symSize: 0x18 }
  - { offset: 0x35E31, size: 0x8, addend: 0x0, symName: __ZNSt3__111__list_nodeIP7NodeBVHPvEC1B8ne200100EPNS_16__list_node_baseIS2_S3_EES7_, symObjAddr: 0x32E10, symBinAddr: 0x100035ED8, symSize: 0x3C }
  - { offset: 0x35E79, size: 0x8, addend: 0x0, symName: __ZNSt3__111__list_nodeIP7NodeBVHPvEC2B8ne200100EPNS_16__list_node_baseIS2_S3_EES7_, symObjAddr: 0x32E4C, symBinAddr: 0x100035F14, symSize: 0x3C }
  - { offset: 0x35EC1, size: 0x8, addend: 0x0, symName: __ZNSt3__116__list_node_baseIP7NodeBVHPvEC2B8ne200100EPS4_S5_, symObjAddr: 0x32E88, symBinAddr: 0x100035F50, symSize: 0x2C }
  - { offset: 0x35F09, size: 0x8, addend: 0x0, symName: __ZNSt3__19allocatorINS_11__list_nodeIP7NodeBVHPvEEE9constructB8ne200100IS3_JRKS3_EEEvPT_DpOT0_, symObjAddr: 0x32EB4, symBinAddr: 0x100035F7C, symSize: 0x28 }
  - { offset: 0x35F5F, size: 0x8, addend: 0x0, symName: __ZNSt3__118__allocation_guardINS_9allocatorINS_11__list_nodeIP7NodeBVHPvEEEEED2B8ne200100Ev, symObjAddr: 0x32EDC, symBinAddr: 0x100035FA4, symSize: 0x2C }
  - { offset: 0x35F89, size: 0x8, addend: 0x0, symName: __ZNSt3__118__allocation_guardINS_9allocatorINS_11__list_nodeIP7NodeBVHPvEEEEE9__destroyB8ne200100Ev, symObjAddr: 0x32F08, symBinAddr: 0x100035FD0, symSize: 0x44 }
  - { offset: 0x35FAF, size: 0x8, addend: 0x0, symName: __ZNSt3__116allocator_traitsINS_9allocatorINS_11__list_nodeIP7NodeBVHPvEEEEE10deallocateB8ne200100ERS7_PS6_m, symObjAddr: 0x32F4C, symBinAddr: 0x100036014, symSize: 0x34 }
  - { offset: 0x35FF1, size: 0x8, addend: 0x0, symName: __ZNSt3__19allocatorINS_11__list_nodeIP7NodeBVHPvEEE10deallocateB8ne200100EPS5_m, symObjAddr: 0x32F80, symBinAddr: 0x100036048, symSize: 0x34 }
  - { offset: 0x36033, size: 0x8, addend: 0x0, symName: __ZNKSt3__110__list_impIP7NodeBVHNS_9allocatorIS2_EEE13__end_as_linkB8ne200100Ev, symObjAddr: 0x33084, symBinAddr: 0x10003614C, symSize: 0x38 }
  - { offset: 0x36059, size: 0x8, addend: 0x0, symName: __ZNSt3__126__list_node_pointer_traitsIP7NodeBVHPvE26__unsafe_link_pointer_castB8ne200100EPNS_16__list_node_baseIS2_S3_EE, symObjAddr: 0x330BC, symBinAddr: 0x100036184, symSize: 0x14 }
  - { offset: 0x3607D, size: 0x8, addend: 0x0, symName: __ZNKSt3__110__list_impIP7NodeBVHNS_9allocatorIS2_EEE5emptyB8ne200100Ev, symObjAddr: 0x330D0, symBinAddr: 0x100036198, symSize: 0x20 }
  - { offset: 0x360A3, size: 0x8, addend: 0x0, symName: __ZNSt3__116__list_node_baseIP7NodeBVHPvE9__as_nodeB8ne200100Ev, symObjAddr: 0x330F0, symBinAddr: 0x1000361B8, symSize: 0x24 }
  - { offset: 0x360C9, size: 0x8, addend: 0x0, symName: __ZNSt3__110__list_impIP7NodeBVHNS_9allocatorIS2_EEE14__unlink_nodesEPNS_16__list_node_baseIS2_PvEES9_, symObjAddr: 0x33114, symBinAddr: 0x1000361DC, symSize: 0x3C }
  - { offset: 0x360FC, size: 0x8, addend: 0x0, symName: __ZNSt3__110__list_impIP7NodeBVHNS_9allocatorIS2_EEE13__delete_nodeB8ne200100EPNS_11__list_nodeIS2_PvEE, symObjAddr: 0x33150, symBinAddr: 0x100036218, symSize: 0x54 }
  - { offset: 0x36131, size: 0x8, addend: 0x0, symName: __ZNSt3__116allocator_traitsINS_9allocatorINS_11__list_nodeIP7NodeBVHPvEEEEE7destroyB8ne200100IS4_vTnNS_9enable_ifIXntsr13__has_destroyIS7_PT_EE5valueEiE4typeELi0EEEvRS7_SC_, symObjAddr: 0x331A4, symBinAddr: 0x10003626C, symSize: 0x28 }
  - { offset: 0x36171, size: 0x8, addend: 0x0, symName: __ZNSt3__111__list_nodeIP7NodeBVHPvED1B8ne200100Ev, symObjAddr: 0x33200, symBinAddr: 0x1000362C8, symSize: 0x2C }
  - { offset: 0x3619B, size: 0x8, addend: 0x0, symName: __ZNSt3__111__list_nodeIP7NodeBVHPvED2B8ne200100Ev, symObjAddr: 0x3322C, symBinAddr: 0x1000362F4, symSize: 0x14 }
  - { offset: 0x361C5, size: 0x8, addend: 0x0, symName: __ZNSt3__14listIP7NodeBVHNS_9allocatorIS2_EEE20__link_nodes_at_backEPNS_16__list_node_baseIS2_PvEES9_, symObjAddr: 0x33240, symBinAddr: 0x100036308, symSize: 0x60 }
  - { offset: 0x36209, size: 0x8, addend: 0x0, symName: __ZNKSt3__16__lessIvvEclB8ne200100IiiEEbRKT_RKT0_, symObjAddr: 0x332F4, symBinAddr: 0x1000363BC, symSize: 0x30 }
  - { offset: 0x3625D, size: 0x8, addend: 0x0, symName: __ZNSt3__14listIP7NodeBVHNS_9allocatorIS2_EEED2Ev, symObjAddr: 0x33378, symBinAddr: 0x100036440, symSize: 0x2C }
  - { offset: 0x3628A, size: 0x8, addend: 0x0, symName: __ZNSt3__110__list_impIP7NodeBVHNS_9allocatorIS2_EEED2Ev, symObjAddr: 0x333A4, symBinAddr: 0x10003646C, symSize: 0x2C }
  - { offset: 0x362B4, size: 0x8, addend: 0x0, symName: __ZNSt3__110__list_impIP7NodeBVHNS_9allocatorIS2_EEE5clearEv, symObjAddr: 0x333D0, symBinAddr: 0x100036498, symSize: 0xAC }
  - { offset: 0x36313, size: 0x8, addend: 0x0, symName: __ZNSt3__112basic_stringIcNS_11char_traitsIcEENS_9allocatorIcEEEC1B8ne200100ILi0EEEPKc, symObjAddr: 0x3347C, symBinAddr: 0x100036544, symSize: 0x34 }
  - { offset: 0x36352, size: 0x8, addend: 0x0, symName: __ZNKSt3__112basic_stringIcNS_11char_traitsIcEENS_9allocatorIcEEE16find_last_not_ofB8ne200100EPKcm, symObjAddr: 0x334B0, symBinAddr: 0x100036578, symSize: 0x74 }
  - { offset: 0x36396, size: 0x8, addend: 0x0, symName: __ZNKSt3__112basic_stringIcNS_11char_traitsIcEENS_9allocatorIcEEE5c_strB8ne200100Ev, symObjAddr: 0x33524, symBinAddr: 0x1000365EC, symSize: 0x24 }
  - { offset: 0x363BC, size: 0x8, addend: 0x0, symName: __ZNSt3__16vectorI6VectorNS_9allocatorIS1_EEE9push_backB8ne200100ERKS1_, symObjAddr: 0x33548, symBinAddr: 0x100036610, symSize: 0x2C }
  - { offset: 0x363F1, size: 0x8, addend: 0x0, symName: __ZN15TriangleIndicesC1Eiiiiiiiiiib, symObjAddr: 0x33574, symBinAddr: 0x10003663C, symSize: 0xAC }
  - { offset: 0x364B5, size: 0x8, addend: 0x0, symName: __ZNSt3__16vectorI15TriangleIndicesNS_9allocatorIS1_EEE9push_backB8ne200100ERKS1_, symObjAddr: 0x33620, symBinAddr: 0x1000366E8, symSize: 0x2C }
  - { offset: 0x364EA, size: 0x8, addend: 0x0, symName: __ZNSt3__112basic_stringIcNS_11char_traitsIcEENS_9allocatorIcEEEC2B8ne200100ILi0EEEPKc, symObjAddr: 0x3364C, symBinAddr: 0x100036714, symSize: 0x50 }
  - { offset: 0x36529, size: 0x8, addend: 0x0, symName: __ZNKSt3__112basic_stringIcNS_11char_traitsIcEENS_9allocatorIcEEE4dataB8ne200100Ev, symObjAddr: 0x33768, symBinAddr: 0x100036830, symSize: 0x28 }
  - { offset: 0x3654F, size: 0x8, addend: 0x0, symName: __ZNKSt3__112basic_stringIcNS_11char_traitsIcEENS_9allocatorIcEEE4sizeB8ne200100Ev, symObjAddr: 0x33790, symBinAddr: 0x100036858, symSize: 0x54 }
  - { offset: 0x36575, size: 0x8, addend: 0x0, symName: __ZNSt3__111char_traitsIcE4findB8ne200100EPKcmRS2_, symObjAddr: 0x337E4, symBinAddr: 0x1000368AC, symSize: 0x68 }
  - { offset: 0x365B4, size: 0x8, addend: 0x0, symName: __ZNKSt3__112basic_stringIcNS_11char_traitsIcEENS_9allocatorIcEEE13__get_pointerB8ne200100Ev, symObjAddr: 0x338A0, symBinAddr: 0x100036968, symSize: 0x54 }
  - { offset: 0x365DA, size: 0x8, addend: 0x0, symName: __ZNKSt3__112basic_stringIcNS_11char_traitsIcEENS_9allocatorIcEEE18__get_long_pointerB8ne200100Ev, symObjAddr: 0x338F4, symBinAddr: 0x1000369BC, symSize: 0x18 }
  - { offset: 0x36600, size: 0x8, addend: 0x0, symName: __ZNKSt3__112basic_stringIcNS_11char_traitsIcEENS_9allocatorIcEEE19__get_short_pointerB8ne200100Ev, symObjAddr: 0x3390C, symBinAddr: 0x1000369D4, symSize: 0x24 }
  - { offset: 0x36626, size: 0x8, addend: 0x0, symName: __ZNSt3__114pointer_traitsIPKcE10pointer_toB8ne200100ERS1_, symObjAddr: 0x33930, symBinAddr: 0x1000369F8, symSize: 0x14 }
  - { offset: 0x36649, size: 0x8, addend: 0x0, symName: __ZNKSt3__112basic_stringIcNS_11char_traitsIcEENS_9allocatorIcEEE15__get_long_sizeB8ne200100Ev, symObjAddr: 0x33944, symBinAddr: 0x100036A0C, symSize: 0x18 }
  - { offset: 0x3666F, size: 0x8, addend: 0x0, symName: __ZNKSt3__112basic_stringIcNS_11char_traitsIcEENS_9allocatorIcEEE16__get_short_sizeB8ne200100Ev, symObjAddr: 0x3395C, symBinAddr: 0x100036A24, symSize: 0x24 }
  - { offset: 0x36695, size: 0x8, addend: 0x0, symName: __ZNSt3__16vectorI6VectorNS_9allocatorIS1_EEE12emplace_backIJRKS1_EEERS1_DpOT_, symObjAddr: 0x33980, symBinAddr: 0x100036A48, symSize: 0x88 }
  - { offset: 0x366E4, size: 0x8, addend: 0x0, symName: __ZNSt3__16vectorI6VectorNS_9allocatorIS1_EEE22__construct_one_at_endB8ne200100IJRKS1_EEEvDpOT_, symObjAddr: 0x33A08, symBinAddr: 0x100036AD0, symSize: 0x84 }
  - { offset: 0x36733, size: 0x8, addend: 0x0, symName: __ZNSt3__16vectorI6VectorNS_9allocatorIS1_EEE24__emplace_back_slow_pathIJRKS1_EEEPS1_DpOT_, symObjAddr: 0x33A8C, symBinAddr: 0x100036B54, symSize: 0xD0 }
  - { offset: 0x3679D, size: 0x8, addend: 0x0, symName: __ZNSt3__16vectorI6VectorNS_9allocatorIS1_EEE21_ConstructTransactionC1B8ne200100ERS4_m, symObjAddr: 0x33B5C, symBinAddr: 0x100036C24, symSize: 0x3C }
  - { offset: 0x367E5, size: 0x8, addend: 0x0, symName: __ZNSt3__116allocator_traitsINS_9allocatorI6VectorEEE9constructB8ne200100IS2_JRKS2_ETnNS_9enable_ifIXsr15__has_constructIS3_PT_DpT0_EE5valueEiE4typeELi0EEEvRS3_SA_DpOSB_, symObjAddr: 0x33B98, symBinAddr: 0x100036C60, symSize: 0x34 }
  - { offset: 0x36841, size: 0x8, addend: 0x0, symName: __ZNSt3__16vectorI6VectorNS_9allocatorIS1_EEE21_ConstructTransactionD1B8ne200100Ev, symObjAddr: 0x33BCC, symBinAddr: 0x100036C94, symSize: 0x2C }
  - { offset: 0x3686B, size: 0x8, addend: 0x0, symName: __ZNSt3__16vectorI6VectorNS_9allocatorIS1_EEE21_ConstructTransactionC2B8ne200100ERS4_m, symObjAddr: 0x33BF8, symBinAddr: 0x100036CC0, symSize: 0x4C }
  - { offset: 0x368B3, size: 0x8, addend: 0x0, symName: __ZNSt3__19allocatorI6VectorE9constructB8ne200100IS1_JRKS1_EEEvPT_DpOT0_, symObjAddr: 0x33C44, symBinAddr: 0x100036D0C, symSize: 0x30 }
  - { offset: 0x36909, size: 0x8, addend: 0x0, symName: __ZNSt3__16vectorI6VectorNS_9allocatorIS1_EEE21_ConstructTransactionD2B8ne200100Ev, symObjAddr: 0x33C74, symBinAddr: 0x100036D3C, symSize: 0x20 }
  - { offset: 0x36933, size: 0x8, addend: 0x0, symName: __ZNKSt3__16vectorI6VectorNS_9allocatorIS1_EEE11__recommendB8ne200100Em, symObjAddr: 0x33C94, symBinAddr: 0x100036D5C, symSize: 0xA8 }
  - { offset: 0x36986, size: 0x8, addend: 0x0, symName: __ZNSt3__114__split_bufferI6VectorRNS_9allocatorIS1_EEEC1EmmS4_, symObjAddr: 0x33D3C, symBinAddr: 0x100036E04, symSize: 0x44 }
  - { offset: 0x369DA, size: 0x8, addend: 0x0, symName: __ZNSt3__16vectorI6VectorNS_9allocatorIS1_EEE26__swap_out_circular_bufferERNS_14__split_bufferIS1_RS3_EE, symObjAddr: 0x33D80, symBinAddr: 0x100036E48, symSize: 0x104 }
  - { offset: 0x36A1E, size: 0x8, addend: 0x0, symName: __ZNSt3__114__split_bufferI6VectorRNS_9allocatorIS1_EEED1Ev, symObjAddr: 0x33E84, symBinAddr: 0x100036F4C, symSize: 0x2C }
  - { offset: 0x36A48, size: 0x8, addend: 0x0, symName: __ZNKSt3__16vectorI6VectorNS_9allocatorIS1_EEE8max_sizeB8ne200100Ev, symObjAddr: 0x33EB0, symBinAddr: 0x100036F78, symSize: 0x5C }
  - { offset: 0x36A6E, size: 0x8, addend: 0x0, symName: __ZNSt3__16vectorI6VectorNS_9allocatorIS1_EEE20__throw_length_errorB8ne200100Ev, symObjAddr: 0x33F0C, symBinAddr: 0x100036FD4, symSize: 0x14 }
  - { offset: 0x36A8D, size: 0x8, addend: 0x0, symName: __ZNSt3__116allocator_traitsINS_9allocatorI6VectorEEE8max_sizeB8ne200100IS3_TnNS_9enable_ifIXsr14__has_max_sizeIKT_EE5valueEiE4typeELi0EEEmRKS3_, symObjAddr: 0x33F20, symBinAddr: 0x100036FE8, symSize: 0x24 }
  - { offset: 0x36AC0, size: 0x8, addend: 0x0, symName: __ZNKSt3__19allocatorI6VectorE8max_sizeB8ne200100Ev, symObjAddr: 0x33F44, symBinAddr: 0x10003700C, symSize: 0x18 }
  - { offset: 0x36AE6, size: 0x8, addend: 0x0, symName: __ZNSt3__114__split_bufferI6VectorRNS_9allocatorIS1_EEEC2EmmS4_, symObjAddr: 0x33F5C, symBinAddr: 0x100037024, symSize: 0xC4 }
  - { offset: 0x36B57, size: 0x8, addend: 0x0, symName: __ZNSt3__19allocatorI6VectorE8allocateB8ne200100Em, symObjAddr: 0x34060, symBinAddr: 0x100037128, symSize: 0x50 }
  - { offset: 0x36B8B, size: 0x8, addend: 0x0, symName: __ZNKSt3__16vectorI6VectorNS_9allocatorIS1_EEE14__annotate_newB8ne200100Em, symObjAddr: 0x341BC, symBinAddr: 0x100037284, symSize: 0x14 }
  - { offset: 0x36BC0, size: 0x8, addend: 0x0, symName: __ZNSt3__114__split_bufferI6VectorRNS_9allocatorIS1_EEED2Ev, symObjAddr: 0x341D0, symBinAddr: 0x100037298, symSize: 0x7C }
  - { offset: 0x36BEA, size: 0x8, addend: 0x0, symName: __ZNSt3__114__split_bufferI6VectorRNS_9allocatorIS1_EEE5clearB8ne200100Ev, symObjAddr: 0x3424C, symBinAddr: 0x100037314, symSize: 0x28 }
  - { offset: 0x36C10, size: 0x8, addend: 0x0, symName: __ZNKSt3__114__split_bufferI6VectorRNS_9allocatorIS1_EEE8capacityB8ne200100Ev, symObjAddr: 0x34274, symBinAddr: 0x10003733C, symSize: 0x28 }
  - { offset: 0x36C36, size: 0x8, addend: 0x0, symName: __ZNSt3__114__split_bufferI6VectorRNS_9allocatorIS1_EEE17__destruct_at_endB8ne200100EPS1_, symObjAddr: 0x3429C, symBinAddr: 0x100037364, symSize: 0x2C }
  - { offset: 0x36C6A, size: 0x8, addend: 0x0, symName: __ZNSt3__114__split_bufferI6VectorRNS_9allocatorIS1_EEE17__destruct_at_endB8ne200100EPS1_NS_17integral_constantIbLb0EEE, symObjAddr: 0x342C8, symBinAddr: 0x100037390, symSize: 0x78 }
  - { offset: 0x36CA9, size: 0x8, addend: 0x0, symName: __ZN15TriangleIndicesC2Eiiiiiiiiiib, symObjAddr: 0x34340, symBinAddr: 0x100037408, symSize: 0xA0 }
  - { offset: 0x36D6D, size: 0x8, addend: 0x0, symName: __ZNSt3__16vectorI15TriangleIndicesNS_9allocatorIS1_EEE12emplace_backIJRKS1_EEERS1_DpOT_, symObjAddr: 0x343E0, symBinAddr: 0x1000374A8, symSize: 0x88 }
  - { offset: 0x36DBC, size: 0x8, addend: 0x0, symName: __ZNSt3__16vectorI15TriangleIndicesNS_9allocatorIS1_EEE22__construct_one_at_endB8ne200100IJRKS1_EEEvDpOT_, symObjAddr: 0x34468, symBinAddr: 0x100037530, symSize: 0x84 }
  - { offset: 0x36E0B, size: 0x8, addend: 0x0, symName: __ZNSt3__16vectorI15TriangleIndicesNS_9allocatorIS1_EEE24__emplace_back_slow_pathIJRKS1_EEEPS1_DpOT_, symObjAddr: 0x344EC, symBinAddr: 0x1000375B4, symSize: 0xD0 }
  - { offset: 0x36E75, size: 0x8, addend: 0x0, symName: __ZNSt3__16vectorI15TriangleIndicesNS_9allocatorIS1_EEE21_ConstructTransactionC1B8ne200100ERS4_m, symObjAddr: 0x345BC, symBinAddr: 0x100037684, symSize: 0x3C }
  - { offset: 0x36EBD, size: 0x8, addend: 0x0, symName: __ZNSt3__116allocator_traitsINS_9allocatorI15TriangleIndicesEEE9constructB8ne200100IS2_JRKS2_ETnNS_9enable_ifIXsr15__has_constructIS3_PT_DpT0_EE5valueEiE4typeELi0EEEvRS3_SA_DpOSB_, symObjAddr: 0x345F8, symBinAddr: 0x1000376C0, symSize: 0x34 }
  - { offset: 0x36F19, size: 0x8, addend: 0x0, symName: __ZNSt3__16vectorI15TriangleIndicesNS_9allocatorIS1_EEE21_ConstructTransactionD1B8ne200100Ev, symObjAddr: 0x3462C, symBinAddr: 0x1000376F4, symSize: 0x2C }
  - { offset: 0x36F43, size: 0x8, addend: 0x0, symName: __ZNSt3__16vectorI15TriangleIndicesNS_9allocatorIS1_EEE21_ConstructTransactionC2B8ne200100ERS4_m, symObjAddr: 0x34658, symBinAddr: 0x100037720, symSize: 0x4C }
  - { offset: 0x36F8B, size: 0x8, addend: 0x0, symName: __ZNSt3__19allocatorI15TriangleIndicesE9constructB8ne200100IS1_JRKS1_EEEvPT_DpOT0_, symObjAddr: 0x346A4, symBinAddr: 0x10003776C, symSize: 0x34 }
  - { offset: 0x36FE1, size: 0x8, addend: 0x0, symName: __ZNSt3__16vectorI15TriangleIndicesNS_9allocatorIS1_EEE21_ConstructTransactionD2B8ne200100Ev, symObjAddr: 0x346D8, symBinAddr: 0x1000377A0, symSize: 0x20 }
  - { offset: 0x3700B, size: 0x8, addend: 0x0, symName: __ZNKSt3__16vectorI15TriangleIndicesNS_9allocatorIS1_EEE11__recommendB8ne200100Em, symObjAddr: 0x346F8, symBinAddr: 0x1000377C0, symSize: 0xA8 }
  - { offset: 0x3705E, size: 0x8, addend: 0x0, symName: __ZNSt3__114__split_bufferI15TriangleIndicesRNS_9allocatorIS1_EEEC1EmmS4_, symObjAddr: 0x347A0, symBinAddr: 0x100037868, symSize: 0x44 }
  - { offset: 0x370B2, size: 0x8, addend: 0x0, symName: __ZNSt3__16vectorI15TriangleIndicesNS_9allocatorIS1_EEE26__swap_out_circular_bufferERNS_14__split_bufferIS1_RS3_EE, symObjAddr: 0x347E4, symBinAddr: 0x1000378AC, symSize: 0x104 }
  - { offset: 0x370F6, size: 0x8, addend: 0x0, symName: __ZNSt3__114__split_bufferI15TriangleIndicesRNS_9allocatorIS1_EEED1Ev, symObjAddr: 0x348E8, symBinAddr: 0x1000379B0, symSize: 0x2C }
  - { offset: 0x37120, size: 0x8, addend: 0x0, symName: __ZNKSt3__16vectorI15TriangleIndicesNS_9allocatorIS1_EEE8max_sizeB8ne200100Ev, symObjAddr: 0x34914, symBinAddr: 0x1000379DC, symSize: 0x5C }
  - { offset: 0x37146, size: 0x8, addend: 0x0, symName: __ZNSt3__16vectorI15TriangleIndicesNS_9allocatorIS1_EEE20__throw_length_errorB8ne200100Ev, symObjAddr: 0x34970, symBinAddr: 0x100037A38, symSize: 0x14 }
  - { offset: 0x37165, size: 0x8, addend: 0x0, symName: __ZNSt3__116allocator_traitsINS_9allocatorI15TriangleIndicesEEE8max_sizeB8ne200100IS3_TnNS_9enable_ifIXsr14__has_max_sizeIKT_EE5valueEiE4typeELi0EEEmRKS3_, symObjAddr: 0x34984, symBinAddr: 0x100037A4C, symSize: 0x24 }
  - { offset: 0x37198, size: 0x8, addend: 0x0, symName: __ZNKSt3__19allocatorI15TriangleIndicesE8max_sizeB8ne200100Ev, symObjAddr: 0x349A8, symBinAddr: 0x100037A70, symSize: 0x18 }
  - { offset: 0x371BE, size: 0x8, addend: 0x0, symName: __ZNSt3__114__split_bufferI15TriangleIndicesRNS_9allocatorIS1_EEEC2EmmS4_, symObjAddr: 0x349C0, symBinAddr: 0x100037A88, symSize: 0xC4 }
  - { offset: 0x3722F, size: 0x8, addend: 0x0, symName: __ZNSt3__19allocatorI15TriangleIndicesE8allocateB8ne200100Em, symObjAddr: 0x34AC4, symBinAddr: 0x100037B8C, symSize: 0x50 }
  - { offset: 0x37263, size: 0x8, addend: 0x0, symName: __ZNKSt3__16vectorI15TriangleIndicesNS_9allocatorIS1_EEE14__annotate_newB8ne200100Em, symObjAddr: 0x34C20, symBinAddr: 0x100037CE8, symSize: 0x14 }
  - { offset: 0x37298, size: 0x8, addend: 0x0, symName: __ZNSt3__114__split_bufferI15TriangleIndicesRNS_9allocatorIS1_EEED2Ev, symObjAddr: 0x34C34, symBinAddr: 0x100037CFC, symSize: 0x7C }
  - { offset: 0x372C2, size: 0x8, addend: 0x0, symName: __ZNSt3__114__split_bufferI15TriangleIndicesRNS_9allocatorIS1_EEE5clearB8ne200100Ev, symObjAddr: 0x34CB0, symBinAddr: 0x100037D78, symSize: 0x28 }
  - { offset: 0x372E8, size: 0x8, addend: 0x0, symName: __ZNKSt3__114__split_bufferI15TriangleIndicesRNS_9allocatorIS1_EEE8capacityB8ne200100Ev, symObjAddr: 0x34CD8, symBinAddr: 0x100037DA0, symSize: 0x28 }
  - { offset: 0x3730E, size: 0x8, addend: 0x0, symName: __ZNSt3__114__split_bufferI15TriangleIndicesRNS_9allocatorIS1_EEE17__destruct_at_endB8ne200100EPS1_, symObjAddr: 0x34D00, symBinAddr: 0x100037DC8, symSize: 0x2C }
  - { offset: 0x37342, size: 0x8, addend: 0x0, symName: __ZNSt3__114__split_bufferI15TriangleIndicesRNS_9allocatorIS1_EEE17__destruct_at_endB8ne200100EPS1_NS_17integral_constantIbLb0EEE, symObjAddr: 0x34D2C, symBinAddr: 0x100037DF4, symSize: 0x78 }
  - { offset: 0x37381, size: 0x8, addend: 0x0, symName: __ZNSt3__16vectorIiNS_9allocatorIiEEE9push_backB8ne200100ERKi, symObjAddr: 0x34DA4, symBinAddr: 0x100037E6C, symSize: 0x2C }
  - { offset: 0x373B6, size: 0x8, addend: 0x0, symName: __ZNSt3__16vectorIdNS_9allocatorIdEEEC1B8ne200100Em, symObjAddr: 0x34DD0, symBinAddr: 0x100037E98, symSize: 0x34 }
  - { offset: 0x373EE, size: 0x8, addend: 0x0, symName: __ZNSt3__16vectorIdNS_9allocatorIdEEEixB8ne200100Em, symObjAddr: 0x34E04, symBinAddr: 0x100037ECC, symSize: 0x24 }
  - { offset: 0x37423, size: 0x8, addend: 0x0, symName: __ZNSt3__16vectorINS0_IdNS_9allocatorIdEEEENS1_IS3_EEE9push_backB8ne200100ERKS3_, symObjAddr: 0x34E28, symBinAddr: 0x100037EF0, symSize: 0x2C }
  - { offset: 0x37458, size: 0x8, addend: 0x0, symName: __ZNSt3__16vectorIiNS_9allocatorIiEEE12emplace_backIJRKiEEERiDpOT_, symObjAddr: 0x34E54, symBinAddr: 0x100037F1C, symSize: 0x88 }
  - { offset: 0x374A7, size: 0x8, addend: 0x0, symName: __ZNSt3__16vectorIiNS_9allocatorIiEEE22__construct_one_at_endB8ne200100IJRKiEEEvDpOT_, symObjAddr: 0x34EDC, symBinAddr: 0x100037FA4, symSize: 0x84 }
  - { offset: 0x374F6, size: 0x8, addend: 0x0, symName: __ZNSt3__16vectorIiNS_9allocatorIiEEE24__emplace_back_slow_pathIJRKiEEEPiDpOT_, symObjAddr: 0x34F60, symBinAddr: 0x100038028, symSize: 0xD0 }
  - { offset: 0x37560, size: 0x8, addend: 0x0, symName: __ZNSt3__16vectorIiNS_9allocatorIiEEE21_ConstructTransactionC1B8ne200100ERS3_m, symObjAddr: 0x35030, symBinAddr: 0x1000380F8, symSize: 0x3C }
  - { offset: 0x375A8, size: 0x8, addend: 0x0, symName: __ZNSt3__116allocator_traitsINS_9allocatorIiEEE9constructB8ne200100IiJRKiETnNS_9enable_ifIXsr15__has_constructIS2_PT_DpT0_EE5valueEiE4typeELi0EEEvRS2_S9_DpOSA_, symObjAddr: 0x3506C, symBinAddr: 0x100038134, symSize: 0x34 }
  - { offset: 0x37604, size: 0x8, addend: 0x0, symName: __ZNSt3__16vectorIiNS_9allocatorIiEEE21_ConstructTransactionD1B8ne200100Ev, symObjAddr: 0x350A0, symBinAddr: 0x100038168, symSize: 0x2C }
  - { offset: 0x3762E, size: 0x8, addend: 0x0, symName: __ZNSt3__16vectorIiNS_9allocatorIiEEE21_ConstructTransactionC2B8ne200100ERS3_m, symObjAddr: 0x350CC, symBinAddr: 0x100038194, symSize: 0x44 }
  - { offset: 0x37676, size: 0x8, addend: 0x0, symName: __ZNSt3__19allocatorIiE9constructB8ne200100IiJRKiEEEvPT_DpOT0_, symObjAddr: 0x35110, symBinAddr: 0x1000381D8, symSize: 0x28 }
  - { offset: 0x376CC, size: 0x8, addend: 0x0, symName: __ZNSt3__16vectorIiNS_9allocatorIiEEE21_ConstructTransactionD2B8ne200100Ev, symObjAddr: 0x35138, symBinAddr: 0x100038200, symSize: 0x20 }
  - { offset: 0x376F6, size: 0x8, addend: 0x0, symName: __ZNKSt3__16vectorIiNS_9allocatorIiEEE11__recommendB8ne200100Em, symObjAddr: 0x35158, symBinAddr: 0x100038220, symSize: 0xA8 }
  - { offset: 0x37749, size: 0x8, addend: 0x0, symName: __ZNSt3__114__split_bufferIiRNS_9allocatorIiEEEC1EmmS3_, symObjAddr: 0x35200, symBinAddr: 0x1000382C8, symSize: 0x44 }
  - { offset: 0x3779D, size: 0x8, addend: 0x0, symName: __ZNSt3__16vectorIiNS_9allocatorIiEEE26__swap_out_circular_bufferERNS_14__split_bufferIiRS2_EE, symObjAddr: 0x35244, symBinAddr: 0x10003830C, symSize: 0x104 }
  - { offset: 0x377E1, size: 0x8, addend: 0x0, symName: __ZNSt3__114__split_bufferIiRNS_9allocatorIiEEED1Ev, symObjAddr: 0x35348, symBinAddr: 0x100038410, symSize: 0x2C }
  - { offset: 0x3780B, size: 0x8, addend: 0x0, symName: __ZNKSt3__16vectorIiNS_9allocatorIiEEE8max_sizeB8ne200100Ev, symObjAddr: 0x35374, symBinAddr: 0x10003843C, symSize: 0x5C }
  - { offset: 0x37831, size: 0x8, addend: 0x0, symName: __ZNSt3__16vectorIiNS_9allocatorIiEEE20__throw_length_errorB8ne200100Ev, symObjAddr: 0x353D0, symBinAddr: 0x100038498, symSize: 0x14 }
  - { offset: 0x37850, size: 0x8, addend: 0x0, symName: __ZNSt3__116allocator_traitsINS_9allocatorIiEEE8max_sizeB8ne200100IS2_TnNS_9enable_ifIXsr14__has_max_sizeIKT_EE5valueEiE4typeELi0EEEmRKS2_, symObjAddr: 0x353E4, symBinAddr: 0x1000384AC, symSize: 0x24 }
  - { offset: 0x37883, size: 0x8, addend: 0x0, symName: __ZNKSt3__19allocatorIiE8max_sizeB8ne200100Ev, symObjAddr: 0x35408, symBinAddr: 0x1000384D0, symSize: 0x14 }
  - { offset: 0x378A9, size: 0x8, addend: 0x0, symName: __ZNSt3__114__split_bufferIiRNS_9allocatorIiEEEC2EmmS3_, symObjAddr: 0x3541C, symBinAddr: 0x1000384E4, symSize: 0xB8 }
  - { offset: 0x3791A, size: 0x8, addend: 0x0, symName: __ZNSt3__19allocatorIiE8allocateB8ne200100Em, symObjAddr: 0x35514, symBinAddr: 0x1000385DC, symSize: 0x50 }
  - { offset: 0x3794E, size: 0x8, addend: 0x0, symName: __ZNKSt3__16vectorIiNS_9allocatorIiEEE14__annotate_newB8ne200100Em, symObjAddr: 0x3566C, symBinAddr: 0x100038734, symSize: 0x14 }
  - { offset: 0x37983, size: 0x8, addend: 0x0, symName: __ZNSt3__114__split_bufferIiRNS_9allocatorIiEEED2Ev, symObjAddr: 0x35680, symBinAddr: 0x100038748, symSize: 0x7C }
  - { offset: 0x379AD, size: 0x8, addend: 0x0, symName: __ZNSt3__114__split_bufferIiRNS_9allocatorIiEEE5clearB8ne200100Ev, symObjAddr: 0x356FC, symBinAddr: 0x1000387C4, symSize: 0x28 }
  - { offset: 0x379D3, size: 0x8, addend: 0x0, symName: __ZNKSt3__114__split_bufferIiRNS_9allocatorIiEEE8capacityB8ne200100Ev, symObjAddr: 0x35724, symBinAddr: 0x1000387EC, symSize: 0x28 }
  - { offset: 0x379F9, size: 0x8, addend: 0x0, symName: __ZNSt3__114__split_bufferIiRNS_9allocatorIiEEE17__destruct_at_endB8ne200100EPi, symObjAddr: 0x3574C, symBinAddr: 0x100038814, symSize: 0x2C }
  - { offset: 0x37A2D, size: 0x8, addend: 0x0, symName: __ZNSt3__114__split_bufferIiRNS_9allocatorIiEEE17__destruct_at_endB8ne200100EPiNS_17integral_constantIbLb0EEE, symObjAddr: 0x35778, symBinAddr: 0x100038840, symSize: 0x78 }
  - { offset: 0x37A6C, size: 0x8, addend: 0x0, symName: __ZNSt3__16vectorIdNS_9allocatorIdEEEC2B8ne200100Em, symObjAddr: 0x357F0, symBinAddr: 0x1000388B8, symSize: 0xC4 }
  - { offset: 0x37AB8, size: 0x8, addend: 0x0, symName: __ZNSt3__19allocatorIdEC1B8ne200100Ev, symObjAddr: 0x358B4, symBinAddr: 0x10003897C, symSize: 0x2C }
  - { offset: 0x37AE2, size: 0x8, addend: 0x0, symName: __ZNSt3__16vectorIdNS_9allocatorIdEEE11__vallocateB8ne200100Em, symObjAddr: 0x35920, symBinAddr: 0x1000389E8, symSize: 0x8C }
  - { offset: 0x37B26, size: 0x8, addend: 0x0, symName: __ZNSt3__16vectorIdNS_9allocatorIdEEE18__construct_at_endEm, symObjAddr: 0x359AC, symBinAddr: 0x100038A74, symSize: 0xB8 }
  - { offset: 0x37B96, size: 0x8, addend: 0x0, symName: __ZNSt3__128__exception_guard_exceptionsINS_6vectorIdNS_9allocatorIdEEE16__destroy_vectorEE10__completeB8ne200100Ev, symObjAddr: 0x35A64, symBinAddr: 0x100038B2C, symSize: 0x1C }
  - { offset: 0x37BBC, size: 0x8, addend: 0x0, symName: __ZNSt3__128__exception_guard_exceptionsINS_6vectorIdNS_9allocatorIdEEE16__destroy_vectorEED1B8ne200100Ev, symObjAddr: 0x35A80, symBinAddr: 0x100038B48, symSize: 0x2C }
  - { offset: 0x37BE6, size: 0x8, addend: 0x0, symName: __ZNSt3__19allocatorIdEC2B8ne200100Ev, symObjAddr: 0x35AAC, symBinAddr: 0x100038B74, symSize: 0x2C }
  - { offset: 0x37C10, size: 0x8, addend: 0x0, symName: __ZNSt3__116__non_trivial_ifILb1ENS_9allocatorIdEEEC2B8ne200100Ev, symObjAddr: 0x35AD8, symBinAddr: 0x100038BA0, symSize: 0x14 }
  - { offset: 0x37C3A, size: 0x8, addend: 0x0, symName: __ZNSt3__128__exception_guard_exceptionsINS_6vectorIdNS_9allocatorIdEEE16__destroy_vectorEEC1B8ne200100ES5_, symObjAddr: 0x35AEC, symBinAddr: 0x100038BB4, symSize: 0x34 }
  - { offset: 0x37C72, size: 0x8, addend: 0x0, symName: __ZNSt3__128__exception_guard_exceptionsINS_6vectorIdNS_9allocatorIdEEE16__destroy_vectorEEC2B8ne200100ES5_, symObjAddr: 0x35B20, symBinAddr: 0x100038BE8, symSize: 0x24 }
  - { offset: 0x37CAA, size: 0x8, addend: 0x0, symName: __ZNKSt3__16vectorIdNS_9allocatorIdEEE8max_sizeB8ne200100Ev, symObjAddr: 0x35B44, symBinAddr: 0x100038C0C, symSize: 0x5C }
  - { offset: 0x37CD0, size: 0x8, addend: 0x0, symName: __ZNSt3__16vectorIdNS_9allocatorIdEEE20__throw_length_errorB8ne200100Ev, symObjAddr: 0x35BA0, symBinAddr: 0x100038C68, symSize: 0x14 }
  - { offset: 0x37CE4, size: 0x8, addend: 0x0, symName: __ZNKSt3__16vectorIdNS_9allocatorIdEEE14__annotate_newB8ne200100Em, symObjAddr: 0x35BF4, symBinAddr: 0x100038CBC, symSize: 0x14 }
  - { offset: 0x37D24, size: 0x8, addend: 0x0, symName: __ZNSt3__116allocator_traitsINS_9allocatorIdEEE8max_sizeB8ne200100IS2_TnNS_9enable_ifIXsr14__has_max_sizeIKT_EE5valueEiE4typeELi0EEEmRKS2_, symObjAddr: 0x35C08, symBinAddr: 0x100038CD0, symSize: 0x24 }
  - { offset: 0x37D57, size: 0x8, addend: 0x0, symName: __ZNKSt3__19allocatorIdE8max_sizeB8ne200100Ev, symObjAddr: 0x35C2C, symBinAddr: 0x100038CF4, symSize: 0x14 }
  - { offset: 0x37D7D, size: 0x8, addend: 0x0, symName: __ZNSt3__19allocatorIdE8allocateB8ne200100Em, symObjAddr: 0x35C40, symBinAddr: 0x100038D08, symSize: 0x50 }
  - { offset: 0x37DCC, size: 0x8, addend: 0x0, symName: __ZNSt3__16vectorIdNS_9allocatorIdEEE21_ConstructTransactionC1B8ne200100ERS3_m, symObjAddr: 0x35CFC, symBinAddr: 0x100038DC4, symSize: 0x3C }
  - { offset: 0x37E14, size: 0x8, addend: 0x0, symName: __ZNSt3__116allocator_traitsINS_9allocatorIdEEE9constructB8ne200100IdJETnNS_9enable_ifIXsr15__has_constructIS2_PT_DpT0_EE5valueEiE4typeELi0EEEvRS2_S7_DpOS8_, symObjAddr: 0x35D38, symBinAddr: 0x100038E00, symSize: 0x2C }
  - { offset: 0x37E5C, size: 0x8, addend: 0x0, symName: __ZNSt3__16vectorIdNS_9allocatorIdEEE21_ConstructTransactionD1B8ne200100Ev, symObjAddr: 0x35D64, symBinAddr: 0x100038E2C, symSize: 0x2C }
  - { offset: 0x37E86, size: 0x8, addend: 0x0, symName: __ZNSt3__16vectorIdNS_9allocatorIdEEE21_ConstructTransactionC2B8ne200100ERS3_m, symObjAddr: 0x35D90, symBinAddr: 0x100038E58, symSize: 0x44 }
  - { offset: 0x37ECE, size: 0x8, addend: 0x0, symName: __ZNSt3__19allocatorIdE9constructB8ne200100IdJEEEvPT_DpOT0_, symObjAddr: 0x35DD4, symBinAddr: 0x100038E9C, symSize: 0x20 }
  - { offset: 0x37F11, size: 0x8, addend: 0x0, symName: __ZNSt3__16vectorIdNS_9allocatorIdEEE21_ConstructTransactionD2B8ne200100Ev, symObjAddr: 0x35DF4, symBinAddr: 0x100038EBC, symSize: 0x20 }
  - { offset: 0x37F3B, size: 0x8, addend: 0x0, symName: __ZNSt3__128__exception_guard_exceptionsINS_6vectorIdNS_9allocatorIdEEE16__destroy_vectorEED2B8ne200100Ev, symObjAddr: 0x35E14, symBinAddr: 0x100038EDC, symSize: 0x48 }
  - { offset: 0x37F65, size: 0x8, addend: 0x0, symName: __ZNSt3__16vectorINS0_IdNS_9allocatorIdEEEENS1_IS3_EEE12emplace_backIJRKS3_EEERS3_DpOT_, symObjAddr: 0x35E5C, symBinAddr: 0x100038F24, symSize: 0x88 }
  - { offset: 0x37FB4, size: 0x8, addend: 0x0, symName: __ZNSt3__16vectorINS0_IdNS_9allocatorIdEEEENS1_IS3_EEE22__construct_one_at_endB8ne200100IJRKS3_EEEvDpOT_, symObjAddr: 0x35EE4, symBinAddr: 0x100038FAC, symSize: 0x84 }
  - { offset: 0x38003, size: 0x8, addend: 0x0, symName: __ZNSt3__16vectorINS0_IdNS_9allocatorIdEEEENS1_IS3_EEE24__emplace_back_slow_pathIJRKS3_EEEPS3_DpOT_, symObjAddr: 0x35F68, symBinAddr: 0x100039030, symSize: 0xD0 }
  - { offset: 0x3806D, size: 0x8, addend: 0x0, symName: __ZNSt3__16vectorINS0_IdNS_9allocatorIdEEEENS1_IS3_EEE21_ConstructTransactionC1B8ne200100ERS5_m, symObjAddr: 0x36038, symBinAddr: 0x100039100, symSize: 0x3C }
  - { offset: 0x380B5, size: 0x8, addend: 0x0, symName: __ZNSt3__116allocator_traitsINS_9allocatorINS_6vectorIdNS1_IdEEEEEEE9constructB8ne200100IS4_JRKS4_ETnNS_9enable_ifIXsr15__has_constructIS5_PT_DpT0_EE5valueEiE4typeELi0EEEvRS5_SC_DpOSD_, symObjAddr: 0x36074, symBinAddr: 0x10003913C, symSize: 0x34 }
  - { offset: 0x38111, size: 0x8, addend: 0x0, symName: __ZNSt3__16vectorINS0_IdNS_9allocatorIdEEEENS1_IS3_EEE21_ConstructTransactionD1B8ne200100Ev, symObjAddr: 0x360A8, symBinAddr: 0x100039170, symSize: 0x2C }
  - { offset: 0x3813B, size: 0x8, addend: 0x0, symName: __ZNSt3__16vectorINS0_IdNS_9allocatorIdEEEENS1_IS3_EEE21_ConstructTransactionC2B8ne200100ERS5_m, symObjAddr: 0x360D4, symBinAddr: 0x10003919C, symSize: 0x4C }
  - { offset: 0x38183, size: 0x8, addend: 0x0, symName: __ZNSt3__19allocatorINS_6vectorIdNS0_IdEEEEE9constructB8ne200100IS3_JRKS3_EEEvPT_DpOT0_, symObjAddr: 0x36120, symBinAddr: 0x1000391E8, symSize: 0x30 }
  - { offset: 0x381D9, size: 0x8, addend: 0x0, symName: __ZNSt3__16vectorIdNS_9allocatorIdEEEC1B8ne200100ERKS3_, symObjAddr: 0x36150, symBinAddr: 0x100039218, symSize: 0x34 }
  - { offset: 0x38212, size: 0x8, addend: 0x0, symName: __ZNSt3__16vectorIdNS_9allocatorIdEEEC2B8ne200100ERKS3_, symObjAddr: 0x36184, symBinAddr: 0x10003924C, symSize: 0x74 }
  - { offset: 0x3824B, size: 0x8, addend: 0x0, symName: __ZNSt3__116allocator_traitsINS_9allocatorIdEEE37select_on_container_copy_constructionB8ne200100IS2_vTnNS_9enable_ifIXntsr43__has_select_on_container_copy_constructionIKT_EE5valueEiE4typeELi0EEES2_RKS2_, symObjAddr: 0x361F8, symBinAddr: 0x1000392C0, symSize: 0x10 }
  - { offset: 0x3827F, size: 0x8, addend: 0x0, symName: __ZNSt3__16vectorIdNS_9allocatorIdEEE16__init_with_sizeB8ne200100IPdS5_EEvT_T0_m, symObjAddr: 0x36208, symBinAddr: 0x1000392D0, symSize: 0xB4 }
  - { offset: 0x382F3, size: 0x8, addend: 0x0, symName: __ZNSt3__16vectorIdNS_9allocatorIdEEE18__construct_at_endIPdS5_EEvT_T0_m, symObjAddr: 0x362BC, symBinAddr: 0x100039384, symSize: 0x88 }
  - { offset: 0x38389, size: 0x8, addend: 0x0, symName: __ZNSt3__14pairIPdS1_EC1B8ne200100IS1_S1_TnNS_9enable_ifIXclsr10_CheckArgsE23__is_pair_constructibleIT_T0_EEEiE4typeELi0EEEOS5_OS6_, symObjAddr: 0x364F4, symBinAddr: 0x1000395BC, symSize: 0x3C }
  - { offset: 0x383E7, size: 0x8, addend: 0x0, symName: __ZNSt3__14pairIPdS1_EC2B8ne200100IS1_S1_TnNS_9enable_ifIXclsr10_CheckArgsE23__is_pair_constructibleIT_T0_EEEiE4typeELi0EEEOS5_OS6_, symObjAddr: 0x36530, symBinAddr: 0x1000395F8, symSize: 0x34 }
  - { offset: 0x38445, size: 0x8, addend: 0x0, symName: __ZNKSt3__111__copy_implclB8ne200100IddTnNS_9enable_ifIXsr38__can_lower_copy_assignment_to_memmoveIT_T0_EE5valueEiE4typeELi0EEENS_4pairIPS3_PS4_EES8_S8_S9_, symObjAddr: 0x3669C, symBinAddr: 0x100039764, symSize: 0x48 }
  - { offset: 0x384B3, size: 0x8, addend: 0x0, symName: __ZNSt3__14pairIPdS1_EC1B8ne200100IRS1_S1_TnNS_9enable_ifIXclsr10_CheckArgsE23__is_pair_constructibleIT_T0_EEEiE4typeELi0EEEOS6_OS7_, symObjAddr: 0x36828, symBinAddr: 0x1000398F0, symSize: 0x3C }
  - { offset: 0x38511, size: 0x8, addend: 0x0, symName: __ZNSt3__14pairIPdS1_EC2B8ne200100IRS1_S1_TnNS_9enable_ifIXclsr10_CheckArgsE23__is_pair_constructibleIT_T0_EEEiE4typeELi0EEEOS6_OS7_, symObjAddr: 0x36864, symBinAddr: 0x10003992C, symSize: 0x34 }
  - { offset: 0x3856F, size: 0x8, addend: 0x0, symName: __ZNSt3__118__unwrap_iter_implIPdLb1EE8__unwrapB8ne200100ES1_, symObjAddr: 0x36898, symBinAddr: 0x100039960, symSize: 0x24 }
  - { offset: 0x38592, size: 0x8, addend: 0x0, symName: __ZNSt3__118__unwrap_iter_implIPdLb1EE8__rewrapB8ne200100ES1_S1_, symObjAddr: 0x368BC, symBinAddr: 0x100039984, symSize: 0x50 }
  - { offset: 0x385C3, size: 0x8, addend: 0x0, symName: __ZNSt3__16vectorINS0_IdNS_9allocatorIdEEEENS1_IS3_EEE21_ConstructTransactionD2B8ne200100Ev, symObjAddr: 0x3690C, symBinAddr: 0x1000399D4, symSize: 0x20 }
  - { offset: 0x385ED, size: 0x8, addend: 0x0, symName: __ZNKSt3__16vectorINS0_IdNS_9allocatorIdEEEENS1_IS3_EEE11__recommendB8ne200100Em, symObjAddr: 0x3692C, symBinAddr: 0x1000399F4, symSize: 0xA8 }
  - { offset: 0x38640, size: 0x8, addend: 0x0, symName: __ZNSt3__114__split_bufferINS_6vectorIdNS_9allocatorIdEEEERNS2_IS4_EEEC1EmmS6_, symObjAddr: 0x369D4, symBinAddr: 0x100039A9C, symSize: 0x44 }
  - { offset: 0x38694, size: 0x8, addend: 0x0, symName: __ZNSt3__16vectorINS0_IdNS_9allocatorIdEEEENS1_IS3_EEE26__swap_out_circular_bufferERNS_14__split_bufferIS3_RS4_EE, symObjAddr: 0x36A18, symBinAddr: 0x100039AE0, symSize: 0x104 }
  - { offset: 0x386D8, size: 0x8, addend: 0x0, symName: __ZNSt3__114__split_bufferINS_6vectorIdNS_9allocatorIdEEEERNS2_IS4_EEED1Ev, symObjAddr: 0x36B1C, symBinAddr: 0x100039BE4, symSize: 0x2C }
  - { offset: 0x38702, size: 0x8, addend: 0x0, symName: __ZNKSt3__16vectorINS0_IdNS_9allocatorIdEEEENS1_IS3_EEE8max_sizeB8ne200100Ev, symObjAddr: 0x36B48, symBinAddr: 0x100039C10, symSize: 0x5C }
  - { offset: 0x38728, size: 0x8, addend: 0x0, symName: __ZNSt3__16vectorINS0_IdNS_9allocatorIdEEEENS1_IS3_EEE20__throw_length_errorB8ne200100Ev, symObjAddr: 0x36BA4, symBinAddr: 0x100039C6C, symSize: 0x14 }
  - { offset: 0x38747, size: 0x8, addend: 0x0, symName: __ZNSt3__116allocator_traitsINS_9allocatorINS_6vectorIdNS1_IdEEEEEEE8max_sizeB8ne200100IS5_TnNS_9enable_ifIXsr14__has_max_sizeIKT_EE5valueEiE4typeELi0EEEmRKS5_, symObjAddr: 0x36BB8, symBinAddr: 0x100039C80, symSize: 0x24 }
  - { offset: 0x3877A, size: 0x8, addend: 0x0, symName: __ZNKSt3__19allocatorINS_6vectorIdNS0_IdEEEEE8max_sizeB8ne200100Ev, symObjAddr: 0x36BDC, symBinAddr: 0x100039CA4, symSize: 0x18 }
  - { offset: 0x387A0, size: 0x8, addend: 0x0, symName: __ZNSt3__114__split_bufferINS_6vectorIdNS_9allocatorIdEEEERNS2_IS4_EEEC2EmmS6_, symObjAddr: 0x36BF4, symBinAddr: 0x100039CBC, symSize: 0xC4 }
  - { offset: 0x38811, size: 0x8, addend: 0x0, symName: __ZNSt3__19allocatorINS_6vectorIdNS0_IdEEEEE8allocateB8ne200100Em, symObjAddr: 0x36CF8, symBinAddr: 0x100039DC0, symSize: 0x50 }
  - { offset: 0x38845, size: 0x8, addend: 0x0, symName: __ZNKSt3__16vectorINS0_IdNS_9allocatorIdEEEENS1_IS3_EEE14__annotate_newB8ne200100Em, symObjAddr: 0x36E54, symBinAddr: 0x100039F1C, symSize: 0x14 }
  - { offset: 0x3887A, size: 0x8, addend: 0x0, symName: __ZNSt3__114__split_bufferINS_6vectorIdNS_9allocatorIdEEEERNS2_IS4_EEED2Ev, symObjAddr: 0x36E68, symBinAddr: 0x100039F30, symSize: 0x7C }
  - { offset: 0x388A4, size: 0x8, addend: 0x0, symName: __ZNSt3__114__split_bufferINS_6vectorIdNS_9allocatorIdEEEERNS2_IS4_EEE5clearB8ne200100Ev, symObjAddr: 0x36EE4, symBinAddr: 0x100039FAC, symSize: 0x28 }
  - { offset: 0x388CA, size: 0x8, addend: 0x0, symName: __ZNKSt3__114__split_bufferINS_6vectorIdNS_9allocatorIdEEEERNS2_IS4_EEE8capacityB8ne200100Ev, symObjAddr: 0x36F0C, symBinAddr: 0x100039FD4, symSize: 0x28 }
  - { offset: 0x388F0, size: 0x8, addend: 0x0, symName: __ZNSt3__114__split_bufferINS_6vectorIdNS_9allocatorIdEEEERNS2_IS4_EEE17__destruct_at_endB8ne200100EPS4_, symObjAddr: 0x36F34, symBinAddr: 0x100039FFC, symSize: 0x2C }
  - { offset: 0x38924, size: 0x8, addend: 0x0, symName: __ZNSt3__114__split_bufferINS_6vectorIdNS_9allocatorIdEEEERNS2_IS4_EEE17__destruct_at_endB8ne200100EPS4_NS_17integral_constantIbLb0EEE, symObjAddr: 0x36F60, symBinAddr: 0x10003A028, symSize: 0x78 }
  - { offset: 0x38963, size: 0x8, addend: 0x0, symName: __ZNSt3__16vectorI6VectorNS_9allocatorIS1_EEE5beginB8ne200100Ev, symObjAddr: 0x36FD8, symBinAddr: 0x10003A0A0, symSize: 0x40 }
  - { offset: 0x38989, size: 0x8, addend: 0x0, symName: __ZNSt3__16vectorI6VectorNS_9allocatorIS1_EEE3endB8ne200100Ev, symObjAddr: 0x37018, symBinAddr: 0x10003A0E0, symSize: 0x40 }
  - { offset: 0x389AF, size: 0x8, addend: 0x0, symName: __ZNKSt3__111__wrap_iterIP6VectorEdeB8ne200100Ev, symObjAddr: 0x37088, symBinAddr: 0x10003A150, symSize: 0x18 }
  - { offset: 0x389D5, size: 0x8, addend: 0x0, symName: __ZNSt3__111__wrap_iterIP6VectorEppB8ne200100Ev, symObjAddr: 0x370A0, symBinAddr: 0x10003A168, symSize: 0x20 }
  - { offset: 0x389FB, size: 0x8, addend: 0x0, symName: __ZNSt3__16vectorI6VectorNS_9allocatorIS1_EEE11__make_iterB8ne200100EPS1_, symObjAddr: 0x370C0, symBinAddr: 0x10003A188, symSize: 0x30 }
  - { offset: 0x38A30, size: 0x8, addend: 0x0, symName: __ZNSt3__16vectorI6VectorNS_9allocatorIS1_EEE26__add_alignment_assumptionB8ne200100IPS1_TnNS_9enable_ifIXsr10is_pointerIT_EE5valueEiE4typeELi0EEES6_S8_, symObjAddr: 0x370F0, symBinAddr: 0x10003A1B8, symSize: 0x14 }
  - { offset: 0x38A63, size: 0x8, addend: 0x0, symName: __ZNSt3__111__wrap_iterIP6VectorEC1B8ne200100ES2_, symObjAddr: 0x37104, symBinAddr: 0x10003A1CC, symSize: 0x34 }
  - { offset: 0x38A9B, size: 0x8, addend: 0x0, symName: __ZNSt3__111__wrap_iterIP6VectorEC2B8ne200100ES2_, symObjAddr: 0x37138, symBinAddr: 0x10003A200, symSize: 0x20 }
  - { offset: 0x38AD3, size: 0x8, addend: 0x0, symName: __ZNKSt3__111__wrap_iterIP6VectorE4baseB8ne200100Ev, symObjAddr: 0x3719C, symBinAddr: 0x10003A264, symSize: 0x18 }
  - { offset: 0x38AF9, size: 0x8, addend: 0x0, symName: __ZN7NodeBVHC2Ev, symObjAddr: 0x371B4, symBinAddr: 0x10003A27C, symSize: 0x74 }
  - { offset: 0x38B23, size: 0x8, addend: 0x0, symName: __ZN11BoundingBoxC1E6VectorS0_, symObjAddr: 0x37228, symBinAddr: 0x10003A2F0, symSize: 0x5C }
  - { offset: 0x38B69, size: 0x8, addend: 0x0, symName: __ZN11BoundingBoxC2E6VectorS0_, symObjAddr: 0x37284, symBinAddr: 0x10003A34C, symSize: 0x4C }
  - { offset: 0x38BAF, size: 0x8, addend: 0x0, symName: __ZNK12TriangleMesh12compute_bboxEii, symObjAddr: 0x372D0, symBinAddr: 0x10003A398, symSize: 0x360 }
  - { offset: 0x38C99, size: 0x8, addend: 0x0, symName: __ZN12TriangleMesh11get_longestERK6Vector, symObjAddr: 0x37630, symBinAddr: 0x10003A6F8, symSize: 0xD4 }
  - { offset: 0x38CBD, size: 0x8, addend: 0x0, symName: __ZNK12TriangleMesh14FindBarycenterERK15TriangleIndices, symObjAddr: 0x37704, symBinAddr: 0x10003A7CC, symSize: 0x100 }
  - { offset: 0x38D21, size: 0x8, addend: 0x0, symName: __ZNKSt16initializer_listI6VectorE5beginB8ne200100Ev, symObjAddr: 0x3785C, symBinAddr: 0x10003A924, symSize: 0x18 }
  - { offset: 0x38D47, size: 0x8, addend: 0x0, symName: __ZNKSt16initializer_listI6VectorE3endB8ne200100Ev, symObjAddr: 0x37874, symBinAddr: 0x10003A93C, symSize: 0x28 }
  - { offset: 0x38D6D, size: 0x8, addend: 0x0, symName: __ZNSt3__19allocatorI12TriangleMeshEC1B8ne200100Ev, symObjAddr: 0x37964, symBinAddr: 0x10003AA2C, symSize: 0x2C }
  - { offset: 0x38DE8, size: 0x8, addend: 0x0, symName: __ZNSt3__118__allocation_guardINS_9allocatorINS_20__shared_ptr_emplaceI12TriangleMeshNS1_IS3_EEEEEEEC1B8ne200100IS4_EET_m, symObjAddr: 0x37990, symBinAddr: 0x10003AA58, symSize: 0x34 }
  - { offset: 0x38E37, size: 0x8, addend: 0x0, symName: __ZNKSt3__118__allocation_guardINS_9allocatorINS_20__shared_ptr_emplaceI12TriangleMeshNS1_IS3_EEEEEEE5__getB8ne200100Ev, symObjAddr: 0x379C4, symBinAddr: 0x10003AA8C, symSize: 0x18 }
  - { offset: 0x38E5D, size: 0x8, addend: 0x0, symName: __ZNSt3__120__shared_ptr_emplaceI12TriangleMeshNS_9allocatorIS1_EEEC1B8ne200100IJRS1_ES3_TnNS_9enable_ifIXntsr7is_sameINT0_10value_typeENS_19__for_overwrite_tagEEE5valueEiE4typeELi0EEES3_DpOT_, symObjAddr: 0x379DC, symBinAddr: 0x10003AAA4, symSize: 0x34 }
  - { offset: 0x38EBD, size: 0x8, addend: 0x0, symName: __ZNSt3__118__allocation_guardINS_9allocatorINS_20__shared_ptr_emplaceI12TriangleMeshNS1_IS3_EEEEEEE13__release_ptrB8ne200100Ev, symObjAddr: 0x37A10, symBinAddr: 0x10003AAD8, symSize: 0x24 }
  - { offset: 0x38EF1, size: 0x8, addend: 0x0, symName: __ZNSt3__110shared_ptrI12TriangleMeshE27__create_with_control_blockB8ne200100IS1_NS_20__shared_ptr_emplaceIS1_NS_9allocatorIS1_EEEEEES2_PT_PT0_, symObjAddr: 0x37A34, symBinAddr: 0x10003AAFC, symSize: 0xA4 }
  - { offset: 0x38F46, size: 0x8, addend: 0x0, symName: __ZNSt3__120__shared_ptr_emplaceI12TriangleMeshNS_9allocatorIS1_EEE10__get_elemB8ne200100Ev, symObjAddr: 0x37AD8, symBinAddr: 0x10003ABA0, symSize: 0x28 }
  - { offset: 0x38F6C, size: 0x8, addend: 0x0, symName: __ZNSt3__118__allocation_guardINS_9allocatorINS_20__shared_ptr_emplaceI12TriangleMeshNS1_IS3_EEEEEEED1B8ne200100Ev, symObjAddr: 0x37B00, symBinAddr: 0x10003ABC8, symSize: 0x2C }
  - { offset: 0x38F96, size: 0x8, addend: 0x0, symName: __ZNSt3__118__allocation_guardINS_9allocatorINS_20__shared_ptr_emplaceI12TriangleMeshNS1_IS3_EEEEEEEC2B8ne200100IS4_EET_m, symObjAddr: 0x37B2C, symBinAddr: 0x10003ABF4, symSize: 0x50 }
  - { offset: 0x38FEB, size: 0x8, addend: 0x0, symName: __ZNSt3__19allocatorINS_20__shared_ptr_emplaceI12TriangleMeshNS0_IS2_EEEEEC1B8ne200100IS2_EERKNS0_IT_EE, symObjAddr: 0x37B7C, symBinAddr: 0x10003AC44, symSize: 0x34 }
  - { offset: 0x39029, size: 0x8, addend: 0x0, symName: __ZNSt3__116allocator_traitsINS_9allocatorINS_20__shared_ptr_emplaceI12TriangleMeshNS1_IS3_EEEEEEE8allocateB8ne200100ERS6_m, symObjAddr: 0x37BB0, symBinAddr: 0x10003AC78, symSize: 0x2C }
  - { offset: 0x3905C, size: 0x8, addend: 0x0, symName: __ZNSt3__19allocatorINS_20__shared_ptr_emplaceI12TriangleMeshNS0_IS2_EEEEEC2B8ne200100IS2_EERKNS0_IT_EE, symObjAddr: 0x37BDC, symBinAddr: 0x10003ACA4, symSize: 0x30 }
  - { offset: 0x3909A, size: 0x8, addend: 0x0, symName: __ZNSt3__116__non_trivial_ifILb1ENS_9allocatorINS_20__shared_ptr_emplaceI12TriangleMeshNS1_IS3_EEEEEEEC2B8ne200100Ev, symObjAddr: 0x37C0C, symBinAddr: 0x10003ACD4, symSize: 0x14 }
  - { offset: 0x390C4, size: 0x8, addend: 0x0, symName: __ZNSt3__19allocatorINS_20__shared_ptr_emplaceI12TriangleMeshNS0_IS2_EEEEE8allocateB8ne200100Em, symObjAddr: 0x37C20, symBinAddr: 0x10003ACE8, symSize: 0x50 }
  - { offset: 0x39103, size: 0x8, addend: 0x0, symName: __ZNSt3__116allocator_traitsINS_9allocatorINS_20__shared_ptr_emplaceI12TriangleMeshNS1_IS3_EEEEEEE8max_sizeB8ne200100IS6_TnNS_9enable_ifIXsr14__has_max_sizeIKT_EE5valueEiE4typeELi0EEEmRKS6_, symObjAddr: 0x37C70, symBinAddr: 0x10003AD38, symSize: 0x24 }
  - { offset: 0x39136, size: 0x8, addend: 0x0, symName: __ZNKSt3__19allocatorINS_20__shared_ptr_emplaceI12TriangleMeshNS0_IS2_EEEEE8max_sizeB8ne200100Ev, symObjAddr: 0x37D04, symBinAddr: 0x10003ADCC, symSize: 0x20 }
  - { offset: 0x3915C, size: 0x8, addend: 0x0, symName: __ZNSt3__120__shared_ptr_emplaceI12TriangleMeshNS_9allocatorIS1_EEEC2B8ne200100IJRS1_ES3_TnNS_9enable_ifIXntsr7is_sameINT0_10value_typeENS_19__for_overwrite_tagEEE5valueEiE4typeELi0EEES3_DpOT_, symObjAddr: 0x37D24, symBinAddr: 0x10003ADEC, symSize: 0xBC }
  - { offset: 0x391DB, size: 0x8, addend: 0x0, symName: __ZNSt3__120__shared_ptr_emplaceI12TriangleMeshNS_9allocatorIS1_EEE8_StorageC1B8ne200100EOS3_, symObjAddr: 0x37DE0, symBinAddr: 0x10003AEA8, symSize: 0x34 }
  - { offset: 0x39213, size: 0x8, addend: 0x0, symName: __ZNSt3__120__shared_ptr_emplaceI12TriangleMeshNS_9allocatorIS1_EEE11__get_allocB8ne200100Ev, symObjAddr: 0x37E14, symBinAddr: 0x10003AEDC, symSize: 0x28 }
  - { offset: 0x3923F, size: 0x8, addend: 0x0, symName: __ZNSt3__116allocator_traitsINS_9allocatorI12TriangleMeshEEE9constructB8ne200100IS2_JRS2_ETnNS_9enable_ifIXsr15__has_constructIS3_PT_DpT0_EE5valueEiE4typeELi0EEEvRS3_S9_DpOSA_, symObjAddr: 0x37E3C, symBinAddr: 0x10003AF04, symSize: 0x34 }
  - { offset: 0x3929B, size: 0x8, addend: 0x0, symName: __ZNSt3__120__shared_ptr_emplaceI12TriangleMeshNS_9allocatorIS1_EEE8_StorageD1B8ne200100Ev, symObjAddr: 0x37E70, symBinAddr: 0x10003AF38, symSize: 0x2C }
  - { offset: 0x392C5, size: 0x8, addend: 0x0, symName: __ZNSt3__120__shared_ptr_emplaceI12TriangleMeshNS_9allocatorIS1_EEED1Ev, symObjAddr: 0x37E9C, symBinAddr: 0x10003AF64, symSize: 0x2C }
  - { offset: 0x392F1, size: 0x8, addend: 0x0, symName: __ZNSt3__120__shared_ptr_emplaceI12TriangleMeshNS_9allocatorIS1_EEED0Ev, symObjAddr: 0x37EC8, symBinAddr: 0x10003AF90, symSize: 0x34 }
  - { offset: 0x3931D, size: 0x8, addend: 0x0, symName: __ZNSt3__120__shared_ptr_emplaceI12TriangleMeshNS_9allocatorIS1_EEE16__on_zero_sharedEv, symObjAddr: 0x37EFC, symBinAddr: 0x10003AFC4, symSize: 0x24 }
  - { offset: 0x39343, size: 0x8, addend: 0x0, symName: __ZNSt3__120__shared_ptr_emplaceI12TriangleMeshNS_9allocatorIS1_EEE21__on_zero_shared_weakEv, symObjAddr: 0x37F20, symBinAddr: 0x10003AFE8, symSize: 0x5C }
  - { offset: 0x39382, size: 0x8, addend: 0x0, symName: __ZNSt3__120__shared_ptr_emplaceI12TriangleMeshNS_9allocatorIS1_EEE8_StorageC2B8ne200100EOS3_, symObjAddr: 0x37F7C, symBinAddr: 0x10003B044, symSize: 0x30 }
  - { offset: 0x393BA, size: 0x8, addend: 0x0, symName: __ZNSt3__120__shared_ptr_emplaceI12TriangleMeshNS_9allocatorIS1_EEE8_Storage11__get_allocB8ne200100Ev, symObjAddr: 0x37FAC, symBinAddr: 0x10003B074, symSize: 0x14 }
  - { offset: 0x393E0, size: 0x8, addend: 0x0, symName: __ZNSt3__19allocatorI12TriangleMeshE9constructB8ne200100IS1_JRS1_EEEvPT_DpOT0_, symObjAddr: 0x37FC0, symBinAddr: 0x10003B088, symSize: 0x30 }
  - { offset: 0x39436, size: 0x8, addend: 0x0, symName: __ZN12TriangleMeshC1ERKS_, symObjAddr: 0x37FF0, symBinAddr: 0x10003B0B8, symSize: 0x34 }
  - { offset: 0x3946B, size: 0x8, addend: 0x0, symName: __ZN12TriangleMeshC2ERKS_, symObjAddr: 0x38024, symBinAddr: 0x10003B0EC, symSize: 0x21C }
  - { offset: 0x394A6, size: 0x8, addend: 0x0, symName: __ZN8GeometryC2ERKS_, symObjAddr: 0x38240, symBinAddr: 0x10003B308, symSize: 0x50 }
  - { offset: 0x394DB, size: 0x8, addend: 0x0, symName: __ZNSt3__16vectorINS0_IdNS_9allocatorIdEEEENS1_IS3_EEEC1B8ne200100ERKS5_, symObjAddr: 0x38290, symBinAddr: 0x10003B358, symSize: 0x34 }
  - { offset: 0x39514, size: 0x8, addend: 0x0, symName: __ZNSt3__16vectorIiNS_9allocatorIiEEEC1B8ne200100ERKS3_, symObjAddr: 0x382C4, symBinAddr: 0x10003B38C, symSize: 0x34 }
  - { offset: 0x3954D, size: 0x8, addend: 0x0, symName: __ZNSt3__16vectorI15TriangleIndicesNS_9allocatorIS1_EEEC1B8ne200100ERKS4_, symObjAddr: 0x382F8, symBinAddr: 0x10003B3C0, symSize: 0x34 }
  - { offset: 0x39586, size: 0x8, addend: 0x0, symName: __ZNSt3__16vectorI6VectorNS_9allocatorIS1_EEEC1B8ne200100ERKS4_, symObjAddr: 0x3832C, symBinAddr: 0x10003B3F4, symSize: 0x34 }
  - { offset: 0x395BF, size: 0x8, addend: 0x0, symName: __ZNSt3__16vectorINS0_IdNS_9allocatorIdEEEENS1_IS3_EEEC2B8ne200100ERKS5_, symObjAddr: 0x38360, symBinAddr: 0x10003B428, symSize: 0x74 }
  - { offset: 0x395F8, size: 0x8, addend: 0x0, symName: __ZNSt3__116allocator_traitsINS_9allocatorINS_6vectorIdNS1_IdEEEEEEE37select_on_container_copy_constructionB8ne200100IS5_vTnNS_9enable_ifIXntsr43__has_select_on_container_copy_constructionIKT_EE5valueEiE4typeELi0EEES5_RKS5_, symObjAddr: 0x383D4, symBinAddr: 0x10003B49C, symSize: 0x10 }
  - { offset: 0x3962C, size: 0x8, addend: 0x0, symName: __ZNSt3__16vectorINS0_IdNS_9allocatorIdEEEENS1_IS3_EEE16__init_with_sizeB8ne200100IPS3_S7_EEvT_T0_m, symObjAddr: 0x383E4, symBinAddr: 0x10003B4AC, symSize: 0xB4 }
  - { offset: 0x396A0, size: 0x8, addend: 0x0, symName: __ZNSt3__16vectorINS0_IdNS_9allocatorIdEEEENS1_IS3_EEE11__vallocateB8ne200100Em, symObjAddr: 0x384D8, symBinAddr: 0x10003B5A0, symSize: 0x94 }
  - { offset: 0x396E4, size: 0x8, addend: 0x0, symName: __ZNSt3__16vectorINS0_IdNS_9allocatorIdEEEENS1_IS3_EEE18__construct_at_endIPS3_S7_EEvT_T0_m, symObjAddr: 0x3856C, symBinAddr: 0x10003B634, symSize: 0x88 }
  - { offset: 0x39758, size: 0x8, addend: 0x0, symName: __ZNSt3__128__exception_guard_exceptionsINS_6vectorINS1_IdNS_9allocatorIdEEEENS2_IS4_EEE16__destroy_vectorEE10__completeB8ne200100Ev, symObjAddr: 0x385F4, symBinAddr: 0x10003B6BC, symSize: 0x1C }
  - { offset: 0x3977E, size: 0x8, addend: 0x0, symName: __ZNSt3__128__exception_guard_exceptionsINS_6vectorINS1_IdNS_9allocatorIdEEEENS2_IS4_EEE16__destroy_vectorEED1B8ne200100Ev, symObjAddr: 0x38610, symBinAddr: 0x10003B6D8, symSize: 0x2C }
  - { offset: 0x397A8, size: 0x8, addend: 0x0, symName: __ZNSt3__128__exception_guard_exceptionsINS_6vectorINS1_IdNS_9allocatorIdEEEENS2_IS4_EEE16__destroy_vectorEEC1B8ne200100ES7_, symObjAddr: 0x3863C, symBinAddr: 0x10003B704, symSize: 0x34 }
  - { offset: 0x397E0, size: 0x8, addend: 0x0, symName: __ZNSt3__128__exception_guard_exceptionsINS_6vectorINS1_IdNS_9allocatorIdEEEENS2_IS4_EEE16__destroy_vectorEEC2B8ne200100ES7_, symObjAddr: 0x38670, symBinAddr: 0x10003B738, symSize: 0x24 }
  - { offset: 0x3983A, size: 0x8, addend: 0x0, symName: __ZNSt3__14pairIPNS_6vectorIdNS_9allocatorIdEEEES5_EC1B8ne200100IS5_S5_TnNS_9enable_ifIXclsr10_CheckArgsE23__is_pair_constructibleIT_T0_EEEiE4typeELi0EEEOS9_OSA_, symObjAddr: 0x388FC, symBinAddr: 0x10003B9C4, symSize: 0x3C }
  - { offset: 0x39898, size: 0x8, addend: 0x0, symName: __ZNSt3__14pairIPNS_6vectorIdNS_9allocatorIdEEEES5_EC2B8ne200100IS5_S5_TnNS_9enable_ifIXclsr10_CheckArgsE23__is_pair_constructibleIT_T0_EEEiE4typeELi0EEEOS9_OSA_, symObjAddr: 0x38938, symBinAddr: 0x10003BA00, symSize: 0x34 }
  - { offset: 0x398F6, size: 0x8, addend: 0x0, symName: __ZNSt3__129_AllocatorDestroyRangeReverseINS_9allocatorINS_6vectorIdNS1_IdEEEEEEPS4_EC1B8ne200100ERS5_RS6_S9_, symObjAddr: 0x389B8, symBinAddr: 0x10003BA80, symSize: 0x44 }
  - { offset: 0x3994D, size: 0x8, addend: 0x0, symName: __ZNSt3__116allocator_traitsINS_9allocatorINS_6vectorIdNS1_IdEEEEEEE9constructB8ne200100IS4_JRS4_ETnNS_9enable_ifIXsr15__has_constructIS5_PT_DpT0_EE5valueEiE4typeELi0EEEvRS5_SB_DpOSC_, symObjAddr: 0x389FC, symBinAddr: 0x10003BAC4, symSize: 0x34 }
  - { offset: 0x399A9, size: 0x8, addend: 0x0, symName: __ZNSt3__128__exception_guard_exceptionsINS_29_AllocatorDestroyRangeReverseINS_9allocatorINS_6vectorIdNS2_IdEEEEEEPS5_EEE10__completeB8ne200100Ev, symObjAddr: 0x38A30, symBinAddr: 0x10003BAF8, symSize: 0x1C }
  - { offset: 0x399CF, size: 0x8, addend: 0x0, symName: __ZNSt3__128__exception_guard_exceptionsINS_29_AllocatorDestroyRangeReverseINS_9allocatorINS_6vectorIdNS2_IdEEEEEEPS5_EEED1B8ne200100Ev, symObjAddr: 0x38A4C, symBinAddr: 0x10003BB14, symSize: 0x2C }
  - { offset: 0x399F9, size: 0x8, addend: 0x0, symName: __ZNSt3__128__exception_guard_exceptionsINS_29_AllocatorDestroyRangeReverseINS_9allocatorINS_6vectorIdNS2_IdEEEEEEPS5_EEEC1B8ne200100ES8_, symObjAddr: 0x38A78, symBinAddr: 0x10003BB40, symSize: 0x34 }
  - { offset: 0x39A32, size: 0x8, addend: 0x0, symName: __ZNSt3__128__exception_guard_exceptionsINS_29_AllocatorDestroyRangeReverseINS_9allocatorINS_6vectorIdNS2_IdEEEEEEPS5_EEEC2B8ne200100ES8_, symObjAddr: 0x38AAC, symBinAddr: 0x10003BB74, symSize: 0x30 }
  - { offset: 0x39A6B, size: 0x8, addend: 0x0, symName: __ZNSt3__129_AllocatorDestroyRangeReverseINS_9allocatorINS_6vectorIdNS1_IdEEEEEEPS4_EC2B8ne200100ERS5_RS6_S9_, symObjAddr: 0x38ADC, symBinAddr: 0x10003BBA4, symSize: 0x38 }
  - { offset: 0x39AC2, size: 0x8, addend: 0x0, symName: __ZNSt3__19allocatorINS_6vectorIdNS0_IdEEEEE9constructB8ne200100IS3_JRS3_EEEvPT_DpOT0_, symObjAddr: 0x38B14, symBinAddr: 0x10003BBDC, symSize: 0x30 }
  - { offset: 0x39B18, size: 0x8, addend: 0x0, symName: __ZNSt3__128__exception_guard_exceptionsINS_29_AllocatorDestroyRangeReverseINS_9allocatorINS_6vectorIdNS2_IdEEEEEEPS5_EEED2B8ne200100Ev, symObjAddr: 0x38B44, symBinAddr: 0x10003BC0C, symSize: 0x50 }
  - { offset: 0x39B42, size: 0x8, addend: 0x0, symName: __ZNKSt3__129_AllocatorDestroyRangeReverseINS_9allocatorINS_6vectorIdNS1_IdEEEEEEPS4_EclB8ne200100Ev, symObjAddr: 0x38B94, symBinAddr: 0x10003BC5C, symSize: 0x68 }
  - { offset: 0x39B68, size: 0x8, addend: 0x0, symName: __ZNSt3__116reverse_iteratorIPNS_6vectorIdNS_9allocatorIdEEEEEC1B8ne200100ES5_, symObjAddr: 0x38C6C, symBinAddr: 0x10003BD34, symSize: 0x34 }
  - { offset: 0x39BA0, size: 0x8, addend: 0x0, symName: __ZNSt3__116reverse_iteratorIPNS_6vectorIdNS_9allocatorIdEEEEEppB8ne200100Ev, symObjAddr: 0x38D08, symBinAddr: 0x10003BDD0, symSize: 0x20 }
  - { offset: 0x39BC6, size: 0x8, addend: 0x0, symName: __ZNKSt3__116reverse_iteratorIPNS_6vectorIdNS_9allocatorIdEEEEE4baseB8ne200100Ev, symObjAddr: 0x38D28, symBinAddr: 0x10003BDF0, symSize: 0x18 }
  - { offset: 0x39BF2, size: 0x8, addend: 0x0, symName: __ZNSt3__119__to_address_helperINS_16reverse_iteratorIPNS_6vectorIdNS_9allocatorIdEEEEEEvE6__callB8ne200100ERKS7_, symObjAddr: 0x38D40, symBinAddr: 0x10003BE08, symSize: 0x38 }
  - { offset: 0x39C15, size: 0x8, addend: 0x0, symName: __ZNKSt3__116reverse_iteratorIPNS_6vectorIdNS_9allocatorIdEEEEEptB8ne200100Ev, symObjAddr: 0x38D78, symBinAddr: 0x10003BE40, symSize: 0x24 }
  - { offset: 0x39C3B, size: 0x8, addend: 0x0, symName: __ZNKSt3__116reverse_iteratorIPNS_6vectorIdNS_9allocatorIdEEEEEdeB8ne200100Ev, symObjAddr: 0x38D9C, symBinAddr: 0x10003BE64, symSize: 0x28 }
  - { offset: 0x39C6F, size: 0x8, addend: 0x0, symName: __ZNSt3__116reverse_iteratorIPNS_6vectorIdNS_9allocatorIdEEEEEC2B8ne200100ES5_, symObjAddr: 0x38DC4, symBinAddr: 0x10003BE8C, symSize: 0x28 }
  - { offset: 0x39CA7, size: 0x8, addend: 0x0, symName: __ZNSt3__118__unwrap_iter_implIPNS_6vectorIdNS_9allocatorIdEEEELb1EE8__unwrapB8ne200100ES5_, symObjAddr: 0x38DEC, symBinAddr: 0x10003BEB4, symSize: 0x24 }
  - { offset: 0x39CCA, size: 0x8, addend: 0x0, symName: __ZNSt3__118__unwrap_iter_implIPNS_6vectorIdNS_9allocatorIdEEEELb1EE8__rewrapB8ne200100ES5_S5_, symObjAddr: 0x38E10, symBinAddr: 0x10003BED8, symSize: 0x58 }
  - { offset: 0x39CFB, size: 0x8, addend: 0x0, symName: __ZNSt3__128__exception_guard_exceptionsINS_6vectorINS1_IdNS_9allocatorIdEEEENS2_IS4_EEE16__destroy_vectorEED2B8ne200100Ev, symObjAddr: 0x38E68, symBinAddr: 0x10003BF30, symSize: 0x48 }
  - { offset: 0x39D25, size: 0x8, addend: 0x0, symName: __ZNSt3__16vectorIiNS_9allocatorIiEEEC2B8ne200100ERKS3_, symObjAddr: 0x38EB0, symBinAddr: 0x10003BF78, symSize: 0x74 }
  - { offset: 0x39D5E, size: 0x8, addend: 0x0, symName: __ZNSt3__116allocator_traitsINS_9allocatorIiEEE37select_on_container_copy_constructionB8ne200100IS2_vTnNS_9enable_ifIXntsr43__has_select_on_container_copy_constructionIKT_EE5valueEiE4typeELi0EEES2_RKS2_, symObjAddr: 0x38F24, symBinAddr: 0x10003BFEC, symSize: 0x10 }
  - { offset: 0x39D92, size: 0x8, addend: 0x0, symName: __ZNSt3__16vectorIiNS_9allocatorIiEEE16__init_with_sizeB8ne200100IPiS5_EEvT_T0_m, symObjAddr: 0x38F34, symBinAddr: 0x10003BFFC, symSize: 0xB4 }
  - { offset: 0x39E06, size: 0x8, addend: 0x0, symName: __ZNSt3__16vectorIiNS_9allocatorIiEEE11__vallocateB8ne200100Em, symObjAddr: 0x39028, symBinAddr: 0x10003C0F0, symSize: 0x8C }
  - { offset: 0x39E4A, size: 0x8, addend: 0x0, symName: __ZNSt3__16vectorIiNS_9allocatorIiEEE18__construct_at_endIPiS5_EEvT_T0_m, symObjAddr: 0x390B4, symBinAddr: 0x10003C17C, symSize: 0x88 }
  - { offset: 0x39EBE, size: 0x8, addend: 0x0, symName: __ZNSt3__128__exception_guard_exceptionsINS_6vectorIiNS_9allocatorIiEEE16__destroy_vectorEE10__completeB8ne200100Ev, symObjAddr: 0x3913C, symBinAddr: 0x10003C204, symSize: 0x1C }
  - { offset: 0x39EE4, size: 0x8, addend: 0x0, symName: __ZNSt3__128__exception_guard_exceptionsINS_6vectorIiNS_9allocatorIiEEE16__destroy_vectorEED1B8ne200100Ev, symObjAddr: 0x39158, symBinAddr: 0x10003C220, symSize: 0x2C }
  - { offset: 0x39F0E, size: 0x8, addend: 0x0, symName: __ZNSt3__128__exception_guard_exceptionsINS_6vectorIiNS_9allocatorIiEEE16__destroy_vectorEEC1B8ne200100ES5_, symObjAddr: 0x39184, symBinAddr: 0x10003C24C, symSize: 0x34 }
  - { offset: 0x39F46, size: 0x8, addend: 0x0, symName: __ZNSt3__128__exception_guard_exceptionsINS_6vectorIiNS_9allocatorIiEEE16__destroy_vectorEEC2B8ne200100ES5_, symObjAddr: 0x391B8, symBinAddr: 0x10003C280, symSize: 0x24 }
  - { offset: 0x39FA0, size: 0x8, addend: 0x0, symName: __ZNSt3__14pairIPiS1_EC1B8ne200100IS1_S1_TnNS_9enable_ifIXclsr10_CheckArgsE23__is_pair_constructibleIT_T0_EEEiE4typeELi0EEEOS5_OS6_, symObjAddr: 0x3938C, symBinAddr: 0x10003C454, symSize: 0x3C }
  - { offset: 0x39FFE, size: 0x8, addend: 0x0, symName: __ZNSt3__14pairIPiS1_EC2B8ne200100IS1_S1_TnNS_9enable_ifIXclsr10_CheckArgsE23__is_pair_constructibleIT_T0_EEEiE4typeELi0EEEOS5_OS6_, symObjAddr: 0x393C8, symBinAddr: 0x10003C490, symSize: 0x34 }
  - { offset: 0x3A05C, size: 0x8, addend: 0x0, symName: __ZNKSt3__111__copy_implclB8ne200100IiiTnNS_9enable_ifIXsr38__can_lower_copy_assignment_to_memmoveIT_T0_EE5valueEiE4typeELi0EEENS_4pairIPS3_PS4_EES8_S8_S9_, symObjAddr: 0x39534, symBinAddr: 0x10003C5FC, symSize: 0x48 }
  - { offset: 0x3A0CA, size: 0x8, addend: 0x0, symName: __ZNSt3__14pairIPiS1_EC1B8ne200100IRS1_S1_TnNS_9enable_ifIXclsr10_CheckArgsE23__is_pair_constructibleIT_T0_EEEiE4typeELi0EEEOS6_OS7_, symObjAddr: 0x396C0, symBinAddr: 0x10003C788, symSize: 0x3C }
  - { offset: 0x3A128, size: 0x8, addend: 0x0, symName: __ZNSt3__14pairIPiS1_EC2B8ne200100IRS1_S1_TnNS_9enable_ifIXclsr10_CheckArgsE23__is_pair_constructibleIT_T0_EEEiE4typeELi0EEEOS6_OS7_, symObjAddr: 0x396FC, symBinAddr: 0x10003C7C4, symSize: 0x34 }
  - { offset: 0x3A186, size: 0x8, addend: 0x0, symName: __ZNSt3__118__unwrap_iter_implIPiLb1EE8__unwrapB8ne200100ES1_, symObjAddr: 0x39730, symBinAddr: 0x10003C7F8, symSize: 0x24 }
  - { offset: 0x3A1A9, size: 0x8, addend: 0x0, symName: __ZNSt3__118__unwrap_iter_implIPiLb1EE8__rewrapB8ne200100ES1_S1_, symObjAddr: 0x39754, symBinAddr: 0x10003C81C, symSize: 0x50 }
  - { offset: 0x3A1DA, size: 0x8, addend: 0x0, symName: __ZNSt3__128__exception_guard_exceptionsINS_6vectorIiNS_9allocatorIiEEE16__destroy_vectorEED2B8ne200100Ev, symObjAddr: 0x397A4, symBinAddr: 0x10003C86C, symSize: 0x48 }
  - { offset: 0x3A204, size: 0x8, addend: 0x0, symName: __ZNSt3__16vectorI15TriangleIndicesNS_9allocatorIS1_EEEC2B8ne200100ERKS4_, symObjAddr: 0x397EC, symBinAddr: 0x10003C8B4, symSize: 0x74 }
  - { offset: 0x3A23D, size: 0x8, addend: 0x0, symName: __ZNSt3__116allocator_traitsINS_9allocatorI15TriangleIndicesEEE37select_on_container_copy_constructionB8ne200100IS3_vTnNS_9enable_ifIXntsr43__has_select_on_container_copy_constructionIKT_EE5valueEiE4typeELi0EEES3_RKS3_, symObjAddr: 0x39860, symBinAddr: 0x10003C928, symSize: 0x10 }
  - { offset: 0x3A271, size: 0x8, addend: 0x0, symName: __ZNSt3__16vectorI15TriangleIndicesNS_9allocatorIS1_EEE16__init_with_sizeB8ne200100IPS1_S6_EEvT_T0_m, symObjAddr: 0x39870, symBinAddr: 0x10003C938, symSize: 0xB4 }
  - { offset: 0x3A2E5, size: 0x8, addend: 0x0, symName: __ZNSt3__16vectorI15TriangleIndicesNS_9allocatorIS1_EEE11__vallocateB8ne200100Em, symObjAddr: 0x39964, symBinAddr: 0x10003CA2C, symSize: 0x94 }
  - { offset: 0x3A329, size: 0x8, addend: 0x0, symName: __ZNSt3__16vectorI15TriangleIndicesNS_9allocatorIS1_EEE18__construct_at_endIPS1_S6_EEvT_T0_m, symObjAddr: 0x399F8, symBinAddr: 0x10003CAC0, symSize: 0x88 }
  - { offset: 0x3A39D, size: 0x8, addend: 0x0, symName: __ZNSt3__128__exception_guard_exceptionsINS_6vectorI15TriangleIndicesNS_9allocatorIS2_EEE16__destroy_vectorEE10__completeB8ne200100Ev, symObjAddr: 0x39A80, symBinAddr: 0x10003CB48, symSize: 0x1C }
  - { offset: 0x3A3C3, size: 0x8, addend: 0x0, symName: __ZNSt3__128__exception_guard_exceptionsINS_6vectorI15TriangleIndicesNS_9allocatorIS2_EEE16__destroy_vectorEED1B8ne200100Ev, symObjAddr: 0x39A9C, symBinAddr: 0x10003CB64, symSize: 0x2C }
  - { offset: 0x3A3ED, size: 0x8, addend: 0x0, symName: __ZNSt3__128__exception_guard_exceptionsINS_6vectorI15TriangleIndicesNS_9allocatorIS2_EEE16__destroy_vectorEEC1B8ne200100ES6_, symObjAddr: 0x39AC8, symBinAddr: 0x10003CB90, symSize: 0x34 }
  - { offset: 0x3A425, size: 0x8, addend: 0x0, symName: __ZNSt3__128__exception_guard_exceptionsINS_6vectorI15TriangleIndicesNS_9allocatorIS2_EEE16__destroy_vectorEEC2B8ne200100ES6_, symObjAddr: 0x39AFC, symBinAddr: 0x10003CBC4, symSize: 0x24 }
  - { offset: 0x3A47F, size: 0x8, addend: 0x0, symName: __ZNSt3__14pairIP15TriangleIndicesS2_EC1B8ne200100IS2_S2_TnNS_9enable_ifIXclsr10_CheckArgsE23__is_pair_constructibleIT_T0_EEEiE4typeELi0EEEOS6_OS7_, symObjAddr: 0x39CD0, symBinAddr: 0x10003CD98, symSize: 0x3C }
  - { offset: 0x3A4DD, size: 0x8, addend: 0x0, symName: __ZNSt3__14pairIP15TriangleIndicesS2_EC2B8ne200100IS2_S2_TnNS_9enable_ifIXclsr10_CheckArgsE23__is_pair_constructibleIT_T0_EEEiE4typeELi0EEEOS6_OS7_, symObjAddr: 0x39D0C, symBinAddr: 0x10003CDD4, symSize: 0x34 }
  - { offset: 0x3A53B, size: 0x8, addend: 0x0, symName: __ZNKSt3__111__copy_implclB8ne200100I15TriangleIndicesS2_TnNS_9enable_ifIXsr38__can_lower_copy_assignment_to_memmoveIT_T0_EE5valueEiE4typeELi0EEENS_4pairIPS4_PS5_EES9_S9_SA_, symObjAddr: 0x39E78, symBinAddr: 0x10003CF40, symSize: 0x48 }
  - { offset: 0x3A5A9, size: 0x8, addend: 0x0, symName: __ZNSt3__14pairIP15TriangleIndicesS2_EC1B8ne200100IRS2_S2_TnNS_9enable_ifIXclsr10_CheckArgsE23__is_pair_constructibleIT_T0_EEEiE4typeELi0EEEOS7_OS8_, symObjAddr: 0x3A010, symBinAddr: 0x10003D0D8, symSize: 0x3C }
  - { offset: 0x3A607, size: 0x8, addend: 0x0, symName: __ZNSt3__14pairIP15TriangleIndicesS2_EC2B8ne200100IRS2_S2_TnNS_9enable_ifIXclsr10_CheckArgsE23__is_pair_constructibleIT_T0_EEEiE4typeELi0EEEOS7_OS8_, symObjAddr: 0x3A04C, symBinAddr: 0x10003D114, symSize: 0x34 }
  - { offset: 0x3A665, size: 0x8, addend: 0x0, symName: __ZNSt3__118__unwrap_iter_implIP15TriangleIndicesLb1EE8__unwrapB8ne200100ES2_, symObjAddr: 0x3A080, symBinAddr: 0x10003D148, symSize: 0x24 }
  - { offset: 0x3A688, size: 0x8, addend: 0x0, symName: __ZNSt3__118__unwrap_iter_implIP15TriangleIndicesLb1EE8__rewrapB8ne200100ES2_S2_, symObjAddr: 0x3A0A4, symBinAddr: 0x10003D16C, symSize: 0x58 }
  - { offset: 0x3A6B9, size: 0x8, addend: 0x0, symName: __ZNSt3__128__exception_guard_exceptionsINS_6vectorI15TriangleIndicesNS_9allocatorIS2_EEE16__destroy_vectorEED2B8ne200100Ev, symObjAddr: 0x3A0FC, symBinAddr: 0x10003D1C4, symSize: 0x48 }
  - { offset: 0x3A6E3, size: 0x8, addend: 0x0, symName: __ZNSt3__16vectorI6VectorNS_9allocatorIS1_EEEC2B8ne200100ERKS4_, symObjAddr: 0x3A144, symBinAddr: 0x10003D20C, symSize: 0x74 }
  - { offset: 0x3A71C, size: 0x8, addend: 0x0, symName: __ZNSt3__116allocator_traitsINS_9allocatorI6VectorEEE37select_on_container_copy_constructionB8ne200100IS3_vTnNS_9enable_ifIXntsr43__has_select_on_container_copy_constructionIKT_EE5valueEiE4typeELi0EEES3_RKS3_, symObjAddr: 0x3A1B8, symBinAddr: 0x10003D280, symSize: 0x10 }
  - { offset: 0x3A750, size: 0x8, addend: 0x0, symName: __ZNSt3__16vectorI6VectorNS_9allocatorIS1_EEE16__init_with_sizeB8ne200100IPS1_S6_EEvT_T0_m, symObjAddr: 0x3A1C8, symBinAddr: 0x10003D290, symSize: 0xB4 }
  - { offset: 0x3A7C4, size: 0x8, addend: 0x0, symName: __ZNSt3__16vectorI6VectorNS_9allocatorIS1_EEE11__vallocateB8ne200100Em, symObjAddr: 0x3A2BC, symBinAddr: 0x10003D384, symSize: 0x94 }
  - { offset: 0x3A808, size: 0x8, addend: 0x0, symName: __ZNSt3__16vectorI6VectorNS_9allocatorIS1_EEE18__construct_at_endIPS1_S6_EEvT_T0_m, symObjAddr: 0x3A350, symBinAddr: 0x10003D418, symSize: 0x88 }
  - { offset: 0x3A87C, size: 0x8, addend: 0x0, symName: __ZNSt3__128__exception_guard_exceptionsINS_6vectorI6VectorNS_9allocatorIS2_EEE16__destroy_vectorEE10__completeB8ne200100Ev, symObjAddr: 0x3A3D8, symBinAddr: 0x10003D4A0, symSize: 0x1C }
  - { offset: 0x3A8A2, size: 0x8, addend: 0x0, symName: __ZNSt3__128__exception_guard_exceptionsINS_6vectorI6VectorNS_9allocatorIS2_EEE16__destroy_vectorEED1B8ne200100Ev, symObjAddr: 0x3A3F4, symBinAddr: 0x10003D4BC, symSize: 0x2C }
  - { offset: 0x3A8CC, size: 0x8, addend: 0x0, symName: __ZNSt3__128__exception_guard_exceptionsINS_6vectorI6VectorNS_9allocatorIS2_EEE16__destroy_vectorEEC1B8ne200100ES6_, symObjAddr: 0x3A420, symBinAddr: 0x10003D4E8, symSize: 0x34 }
  - { offset: 0x3A904, size: 0x8, addend: 0x0, symName: __ZNSt3__128__exception_guard_exceptionsINS_6vectorI6VectorNS_9allocatorIS2_EEE16__destroy_vectorEEC2B8ne200100ES6_, symObjAddr: 0x3A454, symBinAddr: 0x10003D51C, symSize: 0x24 }
  - { offset: 0x3A95E, size: 0x8, addend: 0x0, symName: __ZNSt3__14pairIP6VectorS2_EC1B8ne200100IS2_S2_TnNS_9enable_ifIXclsr10_CheckArgsE23__is_pair_constructibleIT_T0_EEEiE4typeELi0EEEOS6_OS7_, symObjAddr: 0x3A628, symBinAddr: 0x10003D6F0, symSize: 0x3C }
  - { offset: 0x3A9BC, size: 0x8, addend: 0x0, symName: __ZNSt3__14pairIP6VectorS2_EC2B8ne200100IS2_S2_TnNS_9enable_ifIXclsr10_CheckArgsE23__is_pair_constructibleIT_T0_EEEiE4typeELi0EEEOS6_OS7_, symObjAddr: 0x3A664, symBinAddr: 0x10003D72C, symSize: 0x34 }
  - { offset: 0x3AA1A, size: 0x8, addend: 0x0, symName: __ZNKSt3__111__copy_implclB8ne200100I6VectorS2_TnNS_9enable_ifIXsr38__can_lower_copy_assignment_to_memmoveIT_T0_EE5valueEiE4typeELi0EEENS_4pairIPS4_PS5_EES9_S9_SA_, symObjAddr: 0x3A7D0, symBinAddr: 0x10003D898, symSize: 0x48 }
  - { offset: 0x3AA88, size: 0x8, addend: 0x0, symName: __ZNSt3__14pairIP6VectorS2_EC1B8ne200100IRS2_S2_TnNS_9enable_ifIXclsr10_CheckArgsE23__is_pair_constructibleIT_T0_EEEiE4typeELi0EEEOS7_OS8_, symObjAddr: 0x3A968, symBinAddr: 0x10003DA30, symSize: 0x3C }
  - { offset: 0x3AAE6, size: 0x8, addend: 0x0, symName: __ZNSt3__14pairIP6VectorS2_EC2B8ne200100IRS2_S2_TnNS_9enable_ifIXclsr10_CheckArgsE23__is_pair_constructibleIT_T0_EEEiE4typeELi0EEEOS7_OS8_, symObjAddr: 0x3A9A4, symBinAddr: 0x10003DA6C, symSize: 0x34 }
  - { offset: 0x3AB44, size: 0x8, addend: 0x0, symName: __ZNSt3__118__unwrap_iter_implIP6VectorLb1EE8__unwrapB8ne200100ES2_, symObjAddr: 0x3A9D8, symBinAddr: 0x10003DAA0, symSize: 0x24 }
  - { offset: 0x3AB67, size: 0x8, addend: 0x0, symName: __ZNSt3__118__unwrap_iter_implIP6VectorLb1EE8__rewrapB8ne200100ES2_S2_, symObjAddr: 0x3A9FC, symBinAddr: 0x10003DAC4, symSize: 0x58 }
  - { offset: 0x3AB98, size: 0x8, addend: 0x0, symName: __ZNSt3__128__exception_guard_exceptionsINS_6vectorI6VectorNS_9allocatorIS2_EEE16__destroy_vectorEED2B8ne200100Ev, symObjAddr: 0x3AA54, symBinAddr: 0x10003DB1C, symSize: 0x48 }
  - { offset: 0x3ABC2, size: 0x8, addend: 0x0, symName: __ZNSt3__120__shared_ptr_emplaceI12TriangleMeshNS_9allocatorIS1_EEE8_StorageD2B8ne200100Ev, symObjAddr: 0x3AA9C, symBinAddr: 0x10003DB64, symSize: 0x2C }
  - { offset: 0x3ABEC, size: 0x8, addend: 0x0, symName: __ZNSt3__120__shared_ptr_emplaceI12TriangleMeshNS_9allocatorIS1_EEED2Ev, symObjAddr: 0x3AAC8, symBinAddr: 0x10003DB90, symSize: 0x48 }
  - { offset: 0x3AC18, size: 0x8, addend: 0x0, symName: __ZNSt3__120__shared_ptr_emplaceI12TriangleMeshNS_9allocatorIS1_EEE21__on_zero_shared_implB8ne200100IS3_TnNS_9enable_ifIXntsr7is_sameINT_10value_typeENS_19__for_overwrite_tagEEE5valueEiE4typeELi0EEEvv, symObjAddr: 0x3AB10, symBinAddr: 0x10003DBD8, symSize: 0x44 }
  - { offset: 0x3AC66, size: 0x8, addend: 0x0, symName: __ZNSt3__116allocator_traitsINS_9allocatorI12TriangleMeshEEE7destroyB8ne200100IS2_TnNS_9enable_ifIXsr13__has_destroyIS3_PT_EE5valueEiE4typeELi0EEEvRS3_S8_, symObjAddr: 0x3AB54, symBinAddr: 0x10003DC1C, symSize: 0x2C }
  - { offset: 0x3ACA8, size: 0x8, addend: 0x0, symName: __ZNSt3__19allocatorI12TriangleMeshE7destroyB8ne200100EPS1_, symObjAddr: 0x3AB80, symBinAddr: 0x10003DC48, symSize: 0x30 }
  - { offset: 0x3ACDC, size: 0x8, addend: 0x0, symName: __ZNSt3__116allocator_traitsINS_9allocatorINS_20__shared_ptr_emplaceI12TriangleMeshNS1_IS3_EEEEEEE10deallocateB8ne200100ERS6_PS5_m, symObjAddr: 0x3ABB0, symBinAddr: 0x10003DC78, symSize: 0x34 }
  - { offset: 0x3AD1E, size: 0x8, addend: 0x0, symName: __ZNSt3__114pointer_traitsIPNS_20__shared_ptr_emplaceI12TriangleMeshNS_9allocatorIS2_EEEEE10pointer_toB8ne200100ERS5_, symObjAddr: 0x3ABE4, symBinAddr: 0x10003DCAC, symSize: 0x14 }
  - { offset: 0x3AD41, size: 0x8, addend: 0x0, symName: __ZNSt3__19allocatorINS_20__shared_ptr_emplaceI12TriangleMeshNS0_IS2_EEEEE10deallocateB8ne200100EPS4_m, symObjAddr: 0x3ABF8, symBinAddr: 0x10003DCC0, symSize: 0x34 }
  - { offset: 0x3AD83, size: 0x8, addend: 0x0, symName: __ZNSt3__110shared_ptrI12TriangleMeshEC1B8ne200100Ev, symObjAddr: 0x3ACFC, symBinAddr: 0x10003DDC4, symSize: 0x2C }
  - { offset: 0x3ADAD, size: 0x8, addend: 0x0, symName: __ZNSt3__110shared_ptrI12TriangleMeshE18__enable_weak_thisB8ne200100Ez, symObjAddr: 0x3AD28, symBinAddr: 0x10003DDF0, symSize: 0x10 }
  - { offset: 0x3ADD4, size: 0x8, addend: 0x0, symName: __ZNSt3__110shared_ptrI12TriangleMeshEC2B8ne200100Ev, symObjAddr: 0x3AD38, symBinAddr: 0x10003DE00, symSize: 0x1C }
  - { offset: 0x3ADFE, size: 0x8, addend: 0x0, symName: __ZNSt3__120__shared_ptr_emplaceI12TriangleMeshNS_9allocatorIS1_EEE8_Storage10__get_elemB8ne200100Ev, symObjAddr: 0x3AD54, symBinAddr: 0x10003DE1C, symSize: 0x14 }
  - { offset: 0x3AE24, size: 0x8, addend: 0x0, symName: __ZNSt3__118__allocation_guardINS_9allocatorINS_20__shared_ptr_emplaceI12TriangleMeshNS1_IS3_EEEEEEED2B8ne200100Ev, symObjAddr: 0x3AD68, symBinAddr: 0x10003DE30, symSize: 0x2C }
  - { offset: 0x3AE4E, size: 0x8, addend: 0x0, symName: __ZNSt3__118__allocation_guardINS_9allocatorINS_20__shared_ptr_emplaceI12TriangleMeshNS1_IS3_EEEEEEE9__destroyB8ne200100Ev, symObjAddr: 0x3AD94, symBinAddr: 0x10003DE5C, symSize: 0x44 }
  - { offset: 0x3AE74, size: 0x8, addend: 0x0, symName: __ZNSt3__19allocatorI12TriangleMeshEC2B8ne200100Ev, symObjAddr: 0x3ADD8, symBinAddr: 0x10003DEA0, symSize: 0x2C }
  - { offset: 0x3AE9E, size: 0x8, addend: 0x0, symName: __ZNSt3__116__non_trivial_ifILb1ENS_9allocatorI12TriangleMeshEEEC2B8ne200100Ev, symObjAddr: 0x3AE04, symBinAddr: 0x10003DECC, symSize: 0x14 }
  - { offset: 0x3AEC8, size: 0x8, addend: 0x0, symName: __ZNSt3__110shared_ptrI8GeometryEC2B8ne200100I12TriangleMeshTnNS_9enable_ifIXsr17__compatible_withIT_S1_EE5valueEiE4typeELi0EEEONS0_IS6_EE, symObjAddr: 0x3AE18, symBinAddr: 0x10003DEE0, symSize: 0x40 }
  - { offset: 0x3AF10, size: 0x8, addend: 0x0, symName: __ZNSt3__110shared_ptrI12TriangleMeshED2B8ne200100Ev, symObjAddr: 0x3AE58, symBinAddr: 0x10003DF20, symSize: 0x4C }
  - { offset: 0x3AF3A, size: 0x8, addend: 0x0, symName: __ZN12TriangleMeshD2Ev, symObjAddr: 0x3AEA4, symBinAddr: 0x10003DF6C, symSize: 0x9C }
  - { offset: 0x3AF65, size: 0x8, addend: 0x0, symName: __Z8example6v, symObjAddr: 0x3AF40, symBinAddr: 0x10003E008, symSize: 0x518 }
  - { offset: 0x3AFE9, size: 0x8, addend: 0x0, symName: __Z8example7v, symObjAddr: 0x3B458, symBinAddr: 0x10003E520, symSize: 0x514 }
  - { offset: 0x3B06E, size: 0x8, addend: 0x0, symName: _main, symObjAddr: 0x3B96C, symBinAddr: 0x10003EA34, symSize: 0x30 }
...
